ccollections
Counter
p0
((dp1
S'Baptist Church'
p2
I6
sS'Has Day'
p3
I1
sS'Has Hubble'
p4
I2
sS'First Mention'
p5
I14
sS'Second Single'
p6
I1
sS'Why Market'
p7
I21
sS'Maisie Williams'
p8
I1
sS'Golden Tate'
p9
I1
sS'Sanders Show'
p10
I92
sS'Offer Best'
p11
I80
sS'James Snee'
p12
I1
sS'Alan Grier'
p13
I1
sS'Lisa Blatt'
p14
I1
sS'Blunt Will'
p15
I4
sS'Ryan Fitzpatrick'
p16
I4
sS'Turns Left'
p17
I24
sS'Tyra Banks'
p18
I62
sS'Meg Whitman'
p19
I95
sS'Us Off'
p20
I7
sS'People Than'
p21
I1
sS'Al Delvecchio'
p22
I2
sS'Human Body'
p23
I5
sS'Aaron Rodgers'
p24
I118
sS'High Price'
p25
I10
sS'Paul Haggis'
p26
I1
sS'Bruins Chris'
p27
I1
sS'Melinda Gates'
p28
I2
sS'Ten Times'
p29
I2
sS'Be World'
p30
I6
sS'Case To'
p31
I1
sS'Second Home'
p32
I24
sS'Bond Women'
p33
I4
sS'Bank Records'
p34
I3
sS'To Lay'
p35
I1
sS'Earl Jones'
p36
I48
sS'Re Camera'
p37
I1
sS'From Washington'
p38
I21
sS'In Israel'
p39
I33
sS'Artist Jake'
p40
I8
sS'Huge Taubman'
p41
I2
sS'Pound Falls'
p42
I5
sS'Jersey Sports'
p43
I2
sS'Neil Patrick'
p44
I43
sS'Smith Slay'
p45
I49
sS'Home Loan'
p46
I4
sS'Randy Edsall'
p47
I1
sS'Strange Light'
p48
I1
sS'Her First'
p49
I8
sS'Much Money'
p50
I5
sS'Ron Wallace'
p51
I1
sS'College Campus'
p52
I74
sS'To Work'
p53
I4
sS'New Top'
p54
I1
sS'Marcus Paige'
p55
I2
sS'But Warns'
p56
I1
sS'Harry Reid'
p57
I70
sS'More Washington'
p58
I1
sS'Fallen Officer'
p59
I6
sS'Square Miles'
p60
I2
sS'Can You'
p61
I10
sS'Deal Dings'
p62
I76
sS'Deal Points'
p63
I8
sS'Northern Virginia'
p64
I4
sS'Notch Gain'
p65
I1
sS'Ports Widen'
p66
I4
sS'From Street'
p67
I13
sS'Sam Bradford'
p68
I2
sS'Learned From'
p69
I57
sS'Fly First'
p70
I1
sS'Spencer Stone'
p71
I17
sS'How Mark'
p72
I1
sS'Spar Over'
p73
I19
sS'Mi From'
p74
I1
sS'Danny Boyle'
p75
I1
sS'Band From'
p76
I1
sS'Marco Rubio'
p77
I318
sS'Back Home'
p78
I12
sS'Economy Just'
p79
I1
sS'Player Go'
p80
I11
sS'Human In'
p81
I3
sS'Cost Top'
p82
I3
sS'Many Carly'
p83
I2
sS'State Just'
p84
I2
sS'Stock Still'
p85
I20
sS'Apple Profit'
p86
I9
sS'Home Study'
p87
I24
sS'Bring In'
p88
I5
sS'Space To'
p89
I4
sS'Slay Adele'
p90
I49
sS'Record Holiday'
p91
I4
sS'Little Red'
p92
I1
sS'Love Too'
p93
I1
sS'Stage Last'
p94
I2
sS'Loose Over'
p95
I2
sS'No Heart'
p96
I3
sS'More Ice'
p97
I2
sS'Ricky Martin'
p98
I3
sS'Cables Has'
p99
I3
sS'Kristian Stanford'
p100
I1
sS'Police Say'
p101
I94
sS'Over Six'
p102
I4
sS'Juan Gabriel'
p103
I43
sS'Him In'
p104
I24
sS'Mike Evans'
p105
I1
sS'Diesel Suits'
p106
I15
sS'Isley Brothers'
p107
I32
sS'Apple Magic'
p108
I2
sS'Nicholas Sparks'
p109
I16
sS'Quentin Tarantino'
p110
I34
sS'Clinton Over'
p111
I1
sS'In London'
p112
I5
sS'Sing Drake'
p113
I1
sS'So Drake'
p114
I1
sS'Kellogg Profit'
p115
I1
sS'Mae Loan'
p116
I1
sS'Kelly Tisdale'
p117
I1
sS'Christina Milian'
p118
I1
sS'Zack Greinke'
p119
I13
sS'Julianna Snow'
p120
I2
sS'Emma Stone'
p121
I10
sS'Cashing In'
p122
I3
sS'Forget Cecil'
p123
I1
sS'Has Washington'
p124
I2
sS'To Face'
p125
I1
sS'Top College'
p126
I2
sS'Lucas Duda'
p127
I11
sS'Navy Ship'
p128
I6
sS'So Hard'
p129
I1
sS'Be Gone'
p130
I1
sS'Royals Do'
p131
I19
sS'Nicole Renee'
p132
I1
sS'Be You'
p133
I4
sS'Plane Home'
p134
I94
sS'Old Car'
p135
I2
sS'Off First'
p136
I67
sS'In Beckett'
p137
I10
sS'House Seats'
p138
I8
sS'Washington Post'
p139
I567
sS'From Santa'
p140
I1
sS'Luke Bryan'
p141
I4
sS'Black Bears'
p142
I4
sS'See Joe'
p143
I8
sS'Good Mood'
p144
I1
sS'Rubio Grow'
p145
I14
sS'Nate Darling'
p146
I1
sS'Falls Below'
p147
I7
sS'Eugenie Bouchard'
p148
I32
sS'Service Wins'
p149
I1
sS'Hitchcock In'
p150
I2
sS'Edmund Burke'
p151
I1
sS'Island Say'
p152
I2
sS'New Low'
p153
I28
sS'Why Butcher'
p154
I61
sS'Lady Edith'
p155
I2
sS'New Blood'
p156
I3
sS'Sam Frizell'
p157
I1
sS'Can Hurt'
p158
I10
sS'Toll From'
p159
I12
sS'Green Line'
p160
I3
sS'Record Level'
p161
I2
sS'Shore Star'
p162
I3
sS'Will All'
p163
I1
sS'Close Stores'
p164
I5
sS'Catching On'
p165
I1
sS'Georgia Student'
p166
I4
sS'Over President'
p167
I3
sS'Near Sale'
p168
I5
sS'Big Deal'
p169
I1
sS'Case Study'
p170
I3
sS'Israel Frees'
p171
I7
sS'Be Friends'
p172
I1
sS'Bears Buck'
p173
I7
sS'Slim Gain'
p174
I1
sS'London Hedge'
p175
I11
sS'Dorsey Has'
p176
I5
sS'Blue Marble'
p177
I3
sS'Lowers State'
p178
I1
sS'Jim Cramer'
p179
I1
sS'Car Chase'
p180
I1
sS'New Tools'
p181
I6
sS'Running Deep'
p182
I25
sS'Turns Down'
p183
I3
sS'Flash Orange'
p184
I1
sS'Fall Art'
p185
I6
sS'Corn Maze'
p186
I1
sS'Economy Needs'
p187
I1
sS'George Mueller'
p188
I81
sS'Fall Back'
p189
I1
sS'Court Records'
p190
I1
sS'Light Show'
p191
I176
sS'Wind Power'
p192
I2
sS'Signs Deal'
p193
I43
sS'Jose Almeida'
p194
I4
sS'Go Home'
p195
I78
sS'Sales Fall'
p196
I19
sS'Back House'
p197
I9
sS'Bloomberg Turns'
p198
I1
sS'Million War'
p199
I12
sS'Folk Singer'
p200
I12
sS'Silver Case'
p201
I12
sS'Store Top'
p202
I4
sS'Deep Hole'
p203
I13
sS'Prey Near'
p204
I42
sS'Test Driver'
p205
I4
sS'In Congress'
p206
I6
sS'Danish Painter'
p207
I29
sS'Hard Choice'
p208
I1
sS'Money Fear'
p209
I5
sS'Larry Nance'
p210
I1
sS'Borrow Money'
p211
I1
sS'Walter Mondale'
p212
I5
sS'Paul Murray'
p213
I15
sS'Lords Vote'
p214
I4
sS'In Flash'
p215
I2
sS'Son Buys'
p216
I1
sS'Spotted Over'
p217
I1
sS'Julian Castro'
p218
I1
sS'Police Work'
p219
I12
sS'Like Us'
p220
I1
sS'Clerk Kim'
p221
I4
sS'Hard Money'
p222
I1
sS'App Smart'
p223
I105
sS'Cam Newton'
p224
I9
sS'Step Back'
p225
I14
sS'William Gay'
p226
I1
sS'High End'
p227
I4
sS'James Burke'
p228
I1
sS'To Win'
p229
I2
sS'Yoko Ono'
p230
I71
sS'India Held'
p231
I1
sS'You Be'
p232
I7
sS'Lindsay Graham'
p233
I1
sS'Boxer Mike'
p234
I24
sS'Alvin Bronstein'
p235
I16
sS'Katy Perry'
p236
I21
sS'Win Much'
p237
I18
sS'Louis Tomlinson'
p238
I119
sS'My Boss'
p239
I2
sS'Chill From'
p240
I7
sS'Ask Well'
p241
I72
sS'Joan Davidson'
p242
I8
sS'Coach Pat'
p243
I1
sS'In Less'
p244
I24
sS'Go Public'
p245
I1
sS'See More'
p246
I15
sS'Annie Oakley'
p247
I1
sS'Kourtney Kardashian'
p248
I8
sS'Every Day'
p249
I29
sS'Doing Fine'
p250
I1
sS'Star Speaks'
p251
I70
sS'Strong People'
p252
I1
sS'Michael Wilbon'
p253
I1
sS'New Start'
p254
I1
sS'Yellen Sees'
p255
I1
sS'How Israels'
p256
I1
sS'Falls Shy'
p257
I4
sS'French Montana'
p258
I2
sS'New Trial'
p259
I1
sS'Todd Richards'
p260
I2
sS'Gwen Stefani'
p261
I17
sS'No Less'
p262
I1
sS'Over Syria'
p263
I33
sS'On Katie'
p264
I1
sS'Jones Last'
p265
I1
sS'Carolina Beach'
p266
I3
sS'Sidney Blumenthal'
p267
I20
sS'East Side'
p268
I9
sS'Apple Store'
p269
I1
sS'Bradley Beal'
p270
I33
sS'On Friday'
p271
I7
sS'Sees Better'
p272
I1
sS'August Home'
p273
I6
sS'Bull Riding'
p274
I2
sS'New Friend'
p275
I1
sS'David Dinkins'
p276
I6
sS'Grande Turns'
p277
I1
sS'Will Face'
p278
I4
sS'People Teach'
p279
I1
sS'Power Trio'
p280
I2
sS'Day In'
p281
I1
sS'Over Europe'
p282
I1
sS'Francisco Area'
p283
I3
sS'More South'
p284
I1
sS'Love Getting'
p285
I1
sS'John Berger'
p286
I33
sS'Bring Hollywood'
p287
I2
sS'Carson Takes'
p288
I5
sS'Bill Simmons'
p289
I64
sS'Greek Fort'
p290
I1
sS'Colon Cancer'
p291
I1
sS'Calvin Johnson'
p292
I1
sS'Goes Back'
p293
I6
sS'Aid Assad'
p294
I9
sS'Leader Goes'
p295
I23
sS'How Will'
p296
I1
sS'Fox Rolls'
p297
I10
sS'Rooney Mara'
p298
I23
sS'Spring Valley'
p299
I11
sS'Kathleen Matthews'
p300
I1
sS'Be Speaker'
p301
I9
sS'Money Than'
p302
I2
sS'Modest Gain'
p303
I3
sS'Said So'
p304
I1
sS'Works Best'
p305
I2
sS'Christopher Sieber'
p306
I2
sS'Kansas State'
p307
I1
sS'Daring Leap'
p308
I1
sS'In Hollywood'
p309
I3
sS'To See'
p310
I21
sS'Jane Sanders'
p311
I17
sS'Kate Shines'
p312
I3
sS'To Market'
p313
I3
sS'Never Seen'
p314
I1
sS'Born White'
p315
I3
sS'Her Corner'
p316
I3
sS'Worst Blind'
p317
I2
sS'Her New'
p318
I6
sS'Molinaro Dies'
p319
I6
sS'Mighty Hammer'
p320
I1
sS'Key Canada'
p321
I7
sS'Or Face'
p322
I5
sS'Why Grantland'
p323
I20
sS'Flint Hill'
p324
I1
sS'House Speaker'
p325
I145
sS'Jersey City'
p326
I7
sS'Susie Wolff'
p327
I4
sS'Last Flight'
p328
I1
sS'Morgan Near'
p329
I19
sS'Too Well'
p330
I3
sS'Young Man'
p331
I7
sS'More Money'
p332
I12
sS'Tom Brady'
p333
I91
sS'Ben Olsen'
p334
I1
sS'War Seek'
p335
I25
sS'Daniel Cormier'
p336
I2
sS'Patricia Canning'
p337
I4
sS'World To'
p338
I1
sS'China Burns'
p339
I6
sS'Steven Preston'
p340
I1
sS'Keenan Reynolds'
p341
I1
sS'Stewart Has'
p342
I47
sS'Brad Paisley'
p343
I2
sS'Fire Over'
p344
I6
sS'Nissan Leaf'
p345
I3
sS'Long Drought'
p346
I2
sS'Kardashian West'
p347
I6
sS'First To'
p348
I2
sS'China Market'
p349
I1
sS'Be Over'
p350
I2
sS'Shows How'
p351
I113
sS'Brian Mitchell'
p352
I1
sS'Back Pain'
p353
I32
sS'Pass Fiscal'
p354
I2
sS'Sara Be'
p355
I1
sS'Face Big'
p356
I2
sS'New Poster'
p357
I6
sS'Simon Cowell'
p358
I8
sS'Big Storm'
p359
I1
sS'Darlene Love'
p360
I23
sS'Brain Cake'
p361
I30
sS'Lowers Range'
p362
I1
sS'Sandy Alderson'
p363
I5
sS'Holiday Plane'
p364
I2
sS'Gasquet Swiss'
p365
I1
sS'Her Young'
p366
I35
sS'Letters Expose'
p367
I5
sS'How American'
p368
I3
sS'But Apple'
p369
I5
sS'No Rain'
p370
I1
sS'Say Aid'
p371
I6
sS'Temple Mount'
p372
I19
sS'Rose Queen'
p373
I1
sS'Roman Mars'
p374
I1
sS'Stock Market'
p375
I56
sS'Larry David'
p376
I82
sS'Lucy Jones'
p377
I1
sS'Charles Herbert'
p378
I27
sS'Why People'
p379
I2
sS'Kerry Plan'
p380
I1
sS'Keep Ryan'
p381
I1
sS'How Apple'
p382
I18
sS'First Town'
p383
I6
sS'Robin Williams'
p384
I83
sS'Mayor Bowser'
p385
I10
sS'In Bella'
p386
I2
sS'Fort Greene'
p387
I63
sS'New Show'
p388
I115
sS'He Can'
p389
I12
sS'Wild Wings'
p390
I1
sS'Oren Peli'
p391
I25
sS'Shows Signs'
p392
I1
sS'Kicks Off'
p393
I13
sS'Emma Watson'
p394
I132
sS'May Aid'
p395
I32
sS'Canada Court'
p396
I1
sS'Kyle Hendricks'
p397
I1
sS'South Asia'
p398
I15
sS'Adam Gray'
p399
I2
sS'Early To'
p400
I4
sS'Jeremiah Ratliff'
p401
I5
sS'Off Friday'
p402
I1
sS'Better Job'
p403
I7
sS'American Tower'
p404
I1
sS'Drake Dance'
p405
I6
sS'Yu Darvish'
p406
I1
sS'Pick Matt'
p407
I5
sS'Jacob Riis'
p408
I10
sS'Early November'
p409
I1
sS'Columbus Day'
p410
I6
sS'Roger Cohen'
p411
I92
sS'Record Over'
p412
I2
sS'Criss Angel'
p413
I1
sS'Men From'
p414
I4
sS'Rose Less'
p415
I2
sS'Ask Apple'
p416
I2
sS'Richard Gasquet'
p417
I1
sS'Hannah Davis'
p418
I4
sS'Steven Matz'
p419
I14
sS'Perry Win'
p420
I1
sS'High Officer'
p421
I4
sS'New High'
p422
I1
sS'Will Be'
p423
I490
sS'Sheldon Silvers'
p424
I1
sS'King Sunny'
p425
I25
sS'Strong Dollar'
p426
I13
sS'City Still'
p427
I1
sS'More Modest'
p428
I8
sS'Good Weather'
p429
I5
sS'Marcus Luttrell'
p430
I8
sS'Stuck In'
p431
I3
sS'Army Aid'
p432
I1
sS'To How'
p433
I9
sS'Clinton Won'
p434
I6
sS'From Both'
p435
I9
sS'In John'
p436
I29
sS'World Has'
p437
I4
sS'Her Blue'
p438
I85
sS'Donna Edwards'
p439
I3
sS'Safe Harbor'
p440
I59
sS'Person In'
p441
I1
sS'Charles Barkley'
p442
I9
sS'Clinton Aide'
p443
I34
sS'Aaron Gibson'
p444
I4
sS'An In'
p445
I1
sS'Start Matt'
p446
I1
sS'Arrow Season'
p447
I3
sS'City Has'
p448
I8
sS'Richard Hanna'
p449
I1
sS'Ralph Laura'
p450
I1
sS'Sick Son'
p451
I5
sS'King Deal'
p452
I18
sS'Surface Pro'
p453
I11
sS'He Will'
p454
I5
sS'How Drones'
p455
I3
sS'Van Pelt'
p456
I2
sS'Alliance Said'
p457
I2
sS'Dow Jones'
p458
I34
sS'In Older'
p459
I2
sS'Jim Palmer'
p460
I1
sS'Be Fake'
p461
I1
sS'Hillary Clinton'
p462
I1168
sS'Wade Davis'
p463
I2
sS'Apple Sells'
p464
I1
sS'Patrick Kane'
p465
I12
sS'Linda Hamilton'
p466
I73
sS'Winning Over'
p467
I4
sS'Be Free'
p468
I5
sS'Will Even'
p469
I1
sS'How Dell'
p470
I14
sS'No Quick'
p471
I2
sS'Like He'
p472
I1
sS'Do Every'
p473
I5
sS'Has Brought'
p474
I15
sS'Strong Storms'
p475
I1
sS'Them Fail'
p476
I6
sS'Stole Cash'
p477
I1
sS'Fast Way'
p478
I4
sS'Home Hillary'
p479
I3
sS'Leto Heads'
p480
I1
sS'Be Her'
p481
I4
sS'Ted Koppel'
p482
I5
sS'Cameron Smith'
p483
I4
sS'Pitt Moment'
p484
I1
sS'In Courts'
p485
I1
sS'Other Half'
p486
I10
sS'Be Last'
p487
I6
sS'Check Smoke'
p488
I1
sS'From South'
p489
I3
sS'Rains Bring'
p490
I1
sS'Rising Wages'
p491
I27
sS'North American'
p492
I6
sS'Adele Just'
p493
I7
sS'Leader Kicks'
p494
I2
sS'Off Or'
p495
I4
sS'Vice Media'
p496
I21
sS'Will Win'
p497
I1
sS'Stefani Sing'
p498
I1
sS'Will Blow'
p499
I99
sS'Uber Driver'
p500
I91
sS'Duggar Promise'
p501
I4
sS'Off On'
p502
I51
sS'Edward Niedermeyer'
p503
I1
sS'Swift Files'
p504
I1
sS'Still On'
p505
I3
sS'Her From'
p506
I1
sS'Red Eye'
p507
I1
sS'New Ways'
p508
I80
sS'James Wins'
p509
I43
sS'Kylie Minogue'
p510
I1
sS'May Fall'
p511
I5
sS'Rough Day'
p512
I2
sS'More Virginia'
p513
I2
sS'Maryland Senate'
p514
I42
sS'Grande Speaks'
p515
I7
sS'Her Regal'
p516
I3
sS'Big Risk'
p517
I95
sS'Charlie Munger'
p518
I1
sS'In November'
p519
I2
sS'Uber Rides'
p520
I3
sS'How Ryan'
p521
I1
sS'Kyle Navin'
p522
I1
sS'Fees Must'
p523
I1
sS'Vice President'
p524
I45
sS'Plant Worker'
p525
I13
sS'Than Short'
p526
I1
sS'Off Northern'
p527
I1
sS'Perry Buys'
p528
I2
sS'Banks Still'
p529
I1
sS'Sunday Night'
p530
I5
sS'Court In'
p531
I1
sS'Jimmy Roberts'
p532
I24
sS'Gold Down'
p533
I1
sS'Will Never'
p534
I6
sS'Latin America'
p535
I11
sS'Lowers Kenya'
p536
I2
sS'Greek Coast'
p537
I5
sS'Apple Car'
p538
I2
sS'Off East'
p539
I7
sS'Storms Off'
p540
I1
sS'In December'
p541
I3
sS'Ill Nurse'
p542
I4
sS'Stapleton Shine'
p543
I5
sS'Then He'
p544
I9
sS'Edge Over'
p545
I1
sS'Paul Rudd'
p546
I54
sS'Jeffrey Ettinger'
p547
I1
sS'No Plan'
p548
I1
sS'In Denver'
p549
I2
sS'Read Hillary'
p550
I12
sS'Dale Carnegie'
p551
I2
sS'Falling Sales'
p552
I5
sS'Derek Carr'
p553
I2
sS'Jake Arrieta'
p554
I23
sS'How Solid'
p555
I4
sS'Teach You'
p556
I1
sS'How Paul'
p557
I13
sS'Black Student'
p558
I8
sS'Canada Head'
p559
I9
sS'Media Stock'
p560
I2
sS'Faro Ship'
p561
I15
sS'Boys More'
p562
I20
sS'Home Sales'
p563
I58
sS'Wins Burma'
p564
I4
sS'Boys Bring'
p565
I3
sS'Still Care'
p566
I3
sS'Single Maker'
p567
I2
sS'Will Shake'
p568
I1
sS'Be Pretty'
p569
I1
sS'Lowers Sales'
p570
I2
sS'Rein In'
p571
I6
sS'Andre Roberts'
p572
I2
sS'Queen Hillary'
p573
I50
sS'Party Victory'
p574
I6
sS'Lynn Harrell'
p575
I24
sS'York Schools'
p576
I24
sS'Music Has'
p577
I15
sS'Joe Nocera'
p578
I74
sS'Over Human'
p579
I4
sS'Fiscal Charter'
p580
I2
sS'Kate Middleton'
p581
I6
sS'Rush In'
p582
I9
sS'On Rosetta'
p583
I1
sS'Robin Thicke'
p584
I4
sS'Good Day'
p585
I1
sS'York Press'
p586
I15
sS'Seneca Valley'
p587
I3
sS'Never Walk'
p588
I23
sS'Perry Dance'
p589
I1
sS'Scales Back'
p590
I63
sS'Cape Town'
p591
I36
sS'Southern Civil'
p592
I3
sS'North America'
p593
I29
sS'On Marco'
p594
I2
sS'Derrick Rose'
p595
I5
sS'Likes Over'
p596
I2
sS'Big Town'
p597
I5
sS'Law Said'
p598
I4
sS'Point Pleasant'
p599
I10
sS'May Broaden'
p600
I8
sS'New Form'
p601
I2
sS'Herbert Schuch'
p602
I2
sS'Deal Takes'
p603
I1
sS'Eric Garner'
p604
I1
sS'Carbon From'
p605
I2
sS'Daily Loss'
p606
I2
sS'York Senate'
p607
I1
sS'Margot Lawn'
p608
I2
sS'Blue States'
p609
I2
sS'Sports Sites'
p610
I20
sS'Been On'
p611
I2
sS'Why Sandra'
p612
I4
sS'Fuel Rise'
p613
I23
sS'In Montgomery'
p614
I7
sS'Hidden Pines'
p615
I5
sS'Jong Un'
p616
I27
sS'Do You'
p617
I69
sS'Civil Suit'
p618
I1
sS'Trudeau Won'
p619
I1
sS'Cancer Gave'
p620
I4
sS'Brendan Steele'
p621
I2
sS'From Brooklyn'
p622
I18
sS'Home State'
p623
I1
sS'First Black'
p624
I5
sS'Princess Kate'
p625
I5
sS'All Over'
p626
I86
sS'You Do'
p627
I140
sS'Schools Failing'
p628
I16
sS'Claire Danes'
p629
I25
sS'Guillermo Del'
p630
I4
sS'John Oliver'
p631
I54
sS'Nicola Sturgeon'
p632
I1
sS'From Harlem'
p633
I35
sS'Hudson Rail'
p634
I14
sS'Weather Gang'
p635
I99
sS'How Marcus'
p636
I3
sS'Hunger Strike'
p637
I7
sS'Reveal New'
p638
I1
sS'Life May'
p639
I4
sS'Rich Williams'
p640
I6
sS'Over Price'
p641
I6
sS'Super Mario'
p642
I54
sS'Bullock Worst'
p643
I3
sS'Trump Lack'
p644
I41
sS'Wrigley Field'
p645
I3
sS'Has Harsh'
p646
I2
sS'Jessica Biel'
p647
I15
sS'Day Has'
p648
I63
sS'Near Ferguson'
p649
I2
sS'Jim Bowden'
p650
I1
sS'Jamie Foxx'
p651
I8
sS'Top New'
p652
I2
sS'New Boss'
p653
I2
sS'Emma Roberts'
p654
I2
sS'Off China'
p655
I24
sS'Race Has'
p656
I3
sS'Price War'
p657
I1
sS'From Europe'
p658
I7
sS'Minister Sees'
p659
I3
sS'Don Mattingly'
p660
I37
sS'Case You'
p661
I8
sS'My Sweat'
p662
I2
sS'Newcomer Daisy'
p663
I9
sS'Bail Laws'
p664
I1
sS'Stone Age'
p665
I33
sS'How Europe'
p666
I3
sS'Off Over'
p667
I1
sS'Tristan Thompson'
p668
I5
sS'Day Cure'
p669
I5
sS'Be An'
p670
I16
sS'Laurie Anderson'
p671
I18
sS'Leader Hails'
p672
I6
sS'Times More'
p673
I4
sS'Morgan May'
p674
I23
sS'Her Style'
p675
I4
sS'Over Plan'
p676
I11
sS'Ed Reed'
p677
I3
sS'Prince Has'
p678
I3
sS'First Doing'
p679
I48
sS'Cost You'
p680
I2
sS'Read Paul'
p681
I17
sS'Jon Lester'
p682
I10
sS'Andrew Luck'
p683
I42
sS'Mike Pettine'
p684
I1
sS'Roman Polanski'
p685
I15
sS'Island Running'
p686
I4
sS'Real Lunch'
p687
I1
sS'In East'
p688
I6
sS'So Much'
p689
I25
sS'Ready To'
p690
I1
sS'Trial Face'
p691
I4
sS'City Over'
p692
I5
sS'From Bill'
p693
I1
sS'American Word'
p694
I1
sS'Nicholas Kristof'
p695
I4
sS'Bay Area'
p696
I25
sS'City Music'
p697
I1
sS'Howard Coble'
p698
I20
sS'In Record'
p699
I1
sS'First Holiday'
p700
I1
sS'Do Wine'
p701
I75
sS'Worker Has'
p702
I1
sS'In Child'
p703
I9
sS'Barrier Reef'
p704
I6
sS'Never Say'
p705
I48
sS'Brand New'
p706
I2
sS'Money From'
p707
I5
sS'Back Lab'
p708
I42
sS'Common Shoulder'
p709
I1
sS'France Will'
p710
I4
sS'Bob Thornton'
p711
I2
sS'Best Body'
p712
I4
sS'New Short'
p713
I1
sS'China Sea'
p714
I265
sS'Bernard Sumner'
p715
I2
sS'Dennis Ross'
p716
I1
sS'How Fake'
p717
I1
sS'Edward Caban'
p718
I2
sS'Million People'
p719
I1
sS'Grant Morrison'
p720
I24
sS'Bring Down'
p721
I4
sS'Odell Beckham'
p722
I55
sS'Council Head'
p723
I1
sS'Key Test'
p724
I4
sS'All Back'
p725
I1
sS'Dad Donald'
p726
I5
sS'Carson Palmer'
p727
I1
sS'Why Murphy'
p728
I4
sS'Kate Tiara'
p729
I2
sS'Randy Wittman'
p730
I4
sS'How Jeff'
p731
I5
sS'Montana State'
p732
I2
sS'Jessica Jones'
p733
I1
sS'Peele Will'
p734
I6
sS'Wake Forest'
p735
I1
sS'Profit Matters'
p736
I20
sS'Care Law'
p737
I1
sS'Yellow Ranger'
p738
I1
sS'How Lions'
p739
I1
sS'Mount From'
p740
I9
sS'Goulding On'
p741
I36
sS'Santa Barbara'
p742
I1
sS'Artist You'
p743
I79
sS'Police Search'
p744
I59
sS'Michael Roth'
p745
I14
sS'Big Screen'
p746
I8
sS'Joe Torre'
p747
I1
sS'Mark On'
p748
I2
sS'Fort Bragg'
p749
I3
sS'Bond Sales'
p750
I9
sS'Long Sells'
p751
I1
sS'Marlon James'
p752
I69
sS'May Tell'
p753
I7
sS'Found Staples'
p754
I18
sS'Jo White'
p755
I3
sS'Do Little'
p756
I1
sS'May Keep'
p757
I2
sS'Syracuse Leader'
p758
I2
sS'Risk From'
p759
I6
sS'Read Mean'
p760
I2
sS'Drew Brees'
p761
I38
sS'Pacific Ocean'
p762
I14
sS'Too Low'
p763
I1
sS'London Mayor'
p764
I1
sS'Russian Roulette'
p765
I91
sS'Plan Stands'
p766
I1
sS'Thrift Store'
p767
I2
sS'Games Stars'
p768
I2
sS'Big World'
p769
I1
sS'Read Joe'
p770
I6
sS'Michael Jackson'
p771
I147
sS'Police Chase'
p772
I5
sS'Street Like'
p773
I1
sS'Eddie Lacy'
p774
I3
sS'No Hands'
p775
I1
sS'Echo Can'
p776
I2
sS'York Times'
p777
I111
sS'Neighbors Left'
p778
I1
sS'Takes You'
p779
I3
sS'Getting Even'
p780
I22
sS'Sails Near'
p781
I8
sS'Oakland Mills'
p782
I4
sS'Mean Life'
p783
I6
sS'Rough Life'
p784
I3
sS'In Sandy'
p785
I3
sS'Trump Takes'
p786
I12
sS'Song All'
p787
I1
sS'Army Base'
p788
I9
sS'Borders Center'
p789
I7
sS'Dial Down'
p790
I1
sS'Richard Gere'
p791
I1
sS'Blue Line'
p792
I2
sS'Dick Van'
p793
I2
sS'Eastern Flank'
p794
I3
sS'Hover Near'
p795
I1
sS'Over Tiny'
p796
I10
sS'Nico Rosberg'
p797
I1
sS'York Police'
p798
I6
sS'Reach South'
p799
I9
sS'Carli Lloyd'
p800
I4
sS'Morning Ledger'
p801
I136
sS'New Route'
p802
I2
sS'Canada Has'
p803
I4
sS'Has Done'
p804
I1
sS'Bullock Takes'
p805
I1
sS'Banks Face'
p806
I1
sS'In Search'
p807
I1
sS'Apple Sales'
p808
I18
sS'Win Second'
p809
I10
sS'Top Leader'
p810
I2
sS'Cosby Show'
p811
I15
sS'An Oregon'
p812
I1
sS'To Try'
p813
I3
sS'George Germon'
p814
I23
sS'Kidney Cancer'
p815
I2
sS'Many More'
p816
I4
sS'Charlie Campbell'
p817
I139
sS'Sanders Won'
p818
I11
sS'Clinton Win'
p819
I1
sS'Steve Smith'
p820
I2
sS'Gerald Gross'
p821
I17
sS'Cancer Pat'
p822
I1
sS'Semen Nine'
p823
I12
sS'Old West'
p824
I41
sS'Albany Plan'
p825
I2
sS'Bill Maher'
p826
I16
sS'Val Kilmer'
p827
I1
sS'Drone Near'
p828
I8
sS'Times Ricky'
p829
I1
sS'Lamont Peterson'
p830
I13
sS'How President'
p831
I1
sS'Music App'
p832
I2
sS'Billy Donovan'
p833
I8
sS'Cruz Offer'
p834
I1
sS'Book Can'
p835
I1
sS'Gain Strength'
p836
I1
sS'Big Al'
p837
I2
sS'Than Wall'
p838
I20
sS'In New'
p839
I22
sS'From Money'
p840
I23
sS'Sanders Said'
p841
I5
sS'Much Can'
p842
I8
sS'Dennis Hastert'
p843
I31
sS'President Park'
p844
I2
sS'Why Robin'
p845
I1
sS'Davis Comes'
p846
I2
sS'Uber Takes'
p847
I2
sS'Sees Large'
p848
I1
sS'Host Trevor'
p849
I2
sS'Jerold Callam'
p850
I3
sS'Party Leader'
p851
I4
sS'Gates On'
p852
I1
sS'Honda Profit'
p853
I1
sS'Loving Lamar'
p854
I2
sS'Kirchner Has'
p855
I10
sS'On Long'
p856
I1
sS'In Bernie'
p857
I2
sS'Sudan Plane'
p858
I10
sS'You Go'
p859
I1
sS'Luck Charm'
p860
I69
sS'Strong Profit'
p861
I15
sS'On Mars'
p862
I2
sS'How Long'
p863
I12
sS'Ralph Lauren'
p864
I50
sS'Gray Hamburger'
p865
I1
sS'Greek Island'
p866
I38
sS'Rick Ross'
p867
I1
sS'Long Flight'
p868
I64
sS'President George'
p869
I1
sS'You Can'
p870
I105
sS'Jim Crow'
p871
I2
sS'Street Still'
p872
I47
sS'Most See'
p873
I25
sS'Matters More'
p874
I1
sS'David Price'
p875
I13
sS'Sanders Takes'
p876
I17
sS'Patch Angers'
p877
I1
sS'Stocks Little'
p878
I5
sS'Leader In'
p879
I1
sS'Hilary Mantel'
p880
I3
sS'Yellow Line'
p881
I1
sS'Hand Over'
p882
I4
sS'Home Price'
p883
I7
sS'West Virginia'
p884
I18
sS'To Seek'
p885
I1
sS'Emma Ashford'
p886
I112
sS'Winning Edge'
p887
I3
sS'High Gear'
p888
I18
sS'Good Car'
p889
I12
sS'State Street'
p890
I3
sS'Salmon You'
p891
I1
sS'Trump Off'
p892
I55
sS'Smart Money'
p893
I15
sS'Clayton Kershaw'
p894
I9
sS'Larry Rosen'
p895
I2
sS'An End'
p896
I7
sS'Car Much'
p897
I2
sS'Save Space'
p898
I1
sS'Blake Show'
p899
I1
sS'Chase Pay'
p900
I2
sS'Too Many'
p901
I17
sS'Post Loss'
p902
I1
sS'Face First'
p903
I4
sS'Civil War'
p904
I61
sS'Andy Grammer'
p905
I2
sS'Blind Tell'
p906
I1
sS'Robert Durst'
p907
I6
sS'Orange Patches'
p908
I1
sS'Bell Will'
p909
I65
sS'Million Home'
p910
I1
sS'Space Station'
p911
I40
sS'Bruce Springsteen'
p912
I10
sS'Center Chamber'
p913
I21
sS'Test Risk'
p914
I13
sS'French Train'
p915
I1
sS'Face Marin'
p916
I1
sS'Takes Notice'
p917
I8
sS'Life Back'
p918
I7
sS'Links Police'
p919
I4
sS'Mahmoud Abbas'
p920
I2
sS'Tout New'
p921
I3
sS'Gold Price'
p922
I3
sS'Show Border'
p923
I1
sS'Ends Key'
p924
I6
sS'Sue Toy'
p925
I3
sS'School Board'
p926
I1
sS'Law Schools'
p927
I2
sS'Hilla Becher'
p928
I22
sS'Quiet Swiss'
p929
I2
sS'Chamber Music'
p930
I3
sS'Portugal Prime'
p931
I14
sS'Scott Servais'
p932
I2
sS'Must First'
p933
I32
sS'Call Rubio'
p934
I18
sS'Alert You'
p935
I2
sS'Canada Coast'
p936
I3
sS'York Mayor'
p937
I14
sS'Silver Line'
p938
I1
sS'Clinton Be'
p939
I12
sS'Net Loss'
p940
I1
sS'Her High'
p941
I80
sS'South Africa'
p942
I217
sS'Ryan Taps'
p943
I8
sS'Orange Line'
p944
I4
sS'Leap From'
p945
I1
sS'Chambers Speaks'
p946
I5
sS'Stefani Party'
p947
I3
sS'Running Gear'
p948
I1
sS'Backers Plan'
p949
I12
sS'Star To'
p950
I1
sS'Dorothy Day'
p951
I2
sS'Colorado Springs'
p952
I61
sS'Heart Likes'
p953
I3
sS'Much Water'
p954
I16
sS'Dear Big'
p955
I1
sS'Search On'
p956
I5
sS'Larry Lessig'
p957
I2
sS'All Good'
p958
I28
sS'Cicely Tyson'
p959
I48
sS'Can Be'
p960
I82
sS'New Trudeau'
p961
I7
sS'Kerry Hopes'
p962
I1
sS'Job Done'
p963
I17
sS'Alter Ego'
p964
I1
sS'Kris Humphries'
p965
I1
sS'In Washington'
p966
I1
sS'Too Much'
p967
I73
sS'Large Stake'
p968
I11
sS'Race Still'
p969
I7
sS'Ray Cook'
p970
I9
sS'New England'
p971
I42
sS'Tyrone Howard'
p972
I14
sS'Dalton Thompson'
p973
I1
sS'Joshua Bell'
p974
I5
sS'Carly Rae'
p975
I1
sS'Clinton Comes'
p976
I1
sS'Mainland China'
p977
I5
sS'Money Case'
p978
I1
sS'Maya Lin'
p979
I78
sS'Justice Ginsburg'
p980
I2
sS'Mark Zuckerberg'
p981
I75
sS'Police Storm'
p982
I1
sS'Just Won'
p983
I3
sS'Brooklyn Judge'
p984
I2
sS'Puerto Rico'
p985
I211
sS'Money Poll'
p986
I79
sS'Over Vandy'
p987
I1
sS'John Farrell'
p988
I18
sS'Camp Pendleton'
p989
I1
sS'Show Why'
p990
I3
sS'Georgia Went'
p991
I2
sS'View From'
p992
I4
sS'Her Wings'
p993
I1
sS'Charles Woodson'
p994
I1
sS'On Apple'
p995
I4
sS'Takes Shape'
p996
I19
sS'Ryan Stakes'
p997
I22
sS'Fake Arms'
p998
I1
sS'Will Lower'
p999
I1
sS'Munoz Takes'
p1000
I1
sS'See Maureen'
p1001
I20
sS'Whitey Ford'
p1002
I1
sS'Police Halt'
p1003
I5
sS'How Black'
p1004
I4
sS'Down Russian'
p1005
I2
sS'York From'
p1006
I2
sS'Range Strike'
p1007
I6
sS'First Class'
p1008
I41
sS'Bull Market'
p1009
I11
sS'Floyd Mayweather'
p1010
I3
sS'Bar Fire'
p1011
I3
sS'Southern Tier'
p1012
I3
sS'White Shark'
p1013
I42
sS'Getting High'
p1014
I1
sS'Angela Merkel'
p1015
I5
sS'King James'
p1016
I55
sS'Weekly Price'
p1017
I1
sS'Joe Cahill'
p1018
I3
sS'Margaret Sanger'
p1019
I1
sS'Canal Swim'
p1020
I1
sS'Can John'
p1021
I1
sS'Andrew Loupe'
p1022
I1
sS'Greek Bank'
p1023
I6
sS'Mo Williams'
p1024
I1
sS'Too Long'
p1025
I12
sS'May Lower'
p1026
I1
sS'Morgan Chase'
p1027
I2
sS'China Credit'
p1028
I3
sS'Carnegie Hall'
p1029
I43
sS'Old Age'
p1030
I33
sS'My Older'
p1031
I2
sS'Can Govern'
p1032
I16
sS'Jimmy Hubert'
p1033
I6
sS'Has Come'
p1034
I5
sS'Chris Webber'
p1035
I1
sS'Sanders Goes'
p1036
I14
sS'Stocks Edge'
p1037
I21
sS'Both Win'
p1038
I2
sS'You Feeling'
p1039
I1
sS'Martin Zimmerman'
p1040
I13
sS'Big Art'
p1041
I11
sS'Paul Allen'
p1042
I1
sS'Harder Than'
p1043
I73
sS'Yellen Still'
p1044
I1
sS'Why Hollywood'
p1045
I24
sS'Be Falling'
p1046
I11
sS'Fall Weather'
p1047
I1
sS'May See'
p1048
I1
sS'Side Street'
p1049
I4
sS'Francisco Board'
p1050
I2
sS'Race Shows'
p1051
I1
sS'Art From'
p1052
I56
sS'Found Gun'
p1053
I10
sS'Rubio Over'
p1054
I4
sS'Kelly Clarkson'
p1055
I34
sS'Hurt Coral'
p1056
I4
sS'Derek Jeter'
p1057
I4
sS'Colorado Town'
p1058
I1
sS'Clinton Can'
p1059
I4
sS'Reel From'
p1060
I21
sS'Israels Most'
p1061
I1
sS'Smith Island'
p1062
I1
sS'Nan Goldin'
p1063
I27
sS'May Face'
p1064
I5
sS'Hillary Lied'
p1065
I1
sS'Carson Has'
p1066
I2
sS'Storms Bring'
p1067
I2
sS'Face Rape'
p1068
I2
sS'Joe Vitt'
p1069
I1
sS'Jones Hacking'
p1070
I7
sS'Needs To'
p1071
I1
sS'Rock Bottom'
p1072
I24
sS'Ends Search'
p1073
I1
sS'Ways Taylor'
p1074
I2
sS'Free Money'
p1075
I2
sS'China Economy'
p1076
I2
sS'War More'
p1077
I1
sS'Thompson Dies'
p1078
I38
sS'Hire Clay'
p1079
I2
sS'Cash Part'
p1080
I1
sS'New Blue'
p1081
I3
sS'Dorothy Bland'
p1082
I28
sS'Kill Off'
p1083
I4
sS'Heist Goes'
p1084
I6
sS'Justin Route'
p1085
I2
sS'Range Seen'
p1086
I2
sS'Over Police'
p1087
I2
sS'Virginia Student'
p1088
I3
sS'Falls Less'
p1089
I7
sS'Cleveland Park'
p1090
I70
sS'From Berkeley'
p1091
I36
sS'In China'
p1092
I39
sS'How Fred'
p1093
I8
sS'Congress Back'
p1094
I4
sS'Awkward Age'
p1095
I6
sS'Will Stay'
p1096
I47
sS'Prayer Hall'
p1097
I3
sS'Top Money'
p1098
I5
sS'Sales Hurt'
p1099
I1
sS'Can Harm'
p1100
I86
sS'Will Star'
p1101
I4
sS'Like Leonardo'
p1102
I4
sS'More Harm'
p1103
I5
sS'Gary Hart'
p1104
I1
sS'Soon See'
p1105
I15
sS'Top Court'
p1106
I10
sS'Will Smith'
p1107
I1
sS'Power Over'
p1108
I9
sS'Barry Farm'
p1109
I1
sS'Save Art'
p1110
I56
sS'Ways You'
p1111
I2
sS'Jolie Pitt'
p1112
I27
sS'Gomez Shows'
p1113
I72
sS'Swift Sing'
p1114
I59
sS'Hugh Hewitt'
p1115
I5
sS'Treat Daughters'
p1116
I2
sS'Vote Points'
p1117
I3
sS'Frieze London'
p1118
I3
sS'On Bay'
p1119
I1
sS'Bridge Due'
p1120
I1
sS'Her College'
p1121
I3
sS'Ross Turns'
p1122
I4
sS'Signs Fuel'
p1123
I4
sS'Stocks Rose'
p1124
I1
sS'Russian Plane'
p1125
I151
sS'Writer Takes'
p1126
I1
sS'Stanley Profit'
p1127
I10
sS'Phoenix Area'
p1128
I1
sS'Bad Boss'
p1129
I1
sS'Lohan May'
p1130
I1
sS'Do Current'
p1131
I1
sS'Winfrey Buys'
p1132
I3
sS'Bush To'
p1133
I1
sS'Amanda Peet'
p1134
I1
sS'More Mercy'
p1135
I9
sS'Pass Rush'
p1136
I6
sS'Beer Deal'
p1137
I12
sS'Key Profit'
p1138
I1
sS'New From'
p1139
I21
sS'Tammy Baldwin'
p1140
I24
sS'From Fox'
p1141
I20
sS'In Chelsea'
p1142
I1
sS'How Bacon'
p1143
I5
sS'Corey Perry'
p1144
I1
sS'Gathers New'
p1145
I23
sS'Car Sales'
p1146
I35
sS'Jeff Shotts'
p1147
I8
sS'Pope Has'
p1148
I1
sS'Credit Card'
p1149
I17
sS'Push Bill'
p1150
I12
sS'Kansas Voter'
p1151
I7
sS'From Holding'
p1152
I11
sS'Profit Gains'
p1153
I1
sS'Down Plan'
p1154
I3
sS'Pacific Rim'
p1155
I2
sS'Jersey Town'
p1156
I19
sS'Martin Sorrell'
p1157
I3
sS'Green Light'
p1158
I1
sS'Diesel Gate'
p1159
I6
sS'Broadway Box'
p1160
I8
sS'Red Just'
p1161
I70
sS'Million Threat'
p1162
I5
sS'Power Market'
p1163
I1
sS'In Music'
p1164
I2
sS'Foil Wrigley'
p1165
I3
sS'Joseph Ganim'
p1166
I6
sS'In Place'
p1167
I3
sS'Hope Will'
p1168
I1
sS'Webb Mulling'
p1169
I2
sS'See Ryan'
p1170
I1
sS'Ocean Beach'
p1171
I3
sS'Sales Shake'
p1172
I2
sS'Million Over'
p1173
I14
sS'Berlin Wall'
p1174
I24
sS'How Rod'
p1175
I80
sS'Island College'
p1176
I3
sS'Fall Short'
p1177
I1
sS'Carey Wallace'
p1178
I78
sS'Waters In'
p1179
I6
sS'Island Chain'
p1180
I5
sS'Such Loyal'
p1181
I1
sS'Steve Jobs'
p1182
I61
sS'Bill Gross'
p1183
I21
sS'Courtney Jung'
p1184
I6
sS'Jim Webb'
p1185
I87
sS'Venus To'
p1186
I1
sS'Will Mayor'
p1187
I3
sS'Kenya Barris'
p1188
I1
sS'Learn From'
p1189
I4
sS'Big Home'
p1190
I42
sS'Profit Fall'
p1191
I1
sS'Will Mean'
p1192
I3
sS'Porsche Holding'
p1193
I11
sS'Burma Jade'
p1194
I3
sS'Key Reason'
p1195
I14
sS'Has Said'
p1196
I2
sS'Bill Gates'
p1197
I9
sS'Newton John'
p1198
I5
sS'Hickox Will'
p1199
I1
sS'Hillary Hearing'
p1200
I1
sS'Landmark Vote'
p1201
I7
sS'Paul Krugman'
p1202
I8
sS'Near Reef'
p1203
I5
sS'Has No'
p1204
I94
sS'Save Young'
p1205
I4
sS'John Backe'
p1206
I47
sS'Virgil Conway'
p1207
I25
sS'Lightning Strike'
p1208
I33
sS'Party Aid'
p1209
I10
sS'New Way'
p1210
I36
sS'Lady Sing'
p1211
I39
sS'In Anger'
p1212
I1
sS'Leonard Williams'
p1213
I2
sS'Corn Tweet'
p1214
I1
sS'Why John'
p1215
I1
sS'Melissa Benoist'
p1216
I3
sS'Party Congress'
p1217
I1
sS'Will Say'
p1218
I3
sS'Joseph Randle'
p1219
I4
sS'Jenner Turns'
p1220
I3
sS'Matters Most'
p1221
I21
sS'New Hampshire'
p1222
I36
sS'Ink Deal'
p1223
I2
sS'Eastern States'
p1224
I1
sS'Hill Valley'
p1225
I7
sS'To Force'
p1226
I3
sS'From Olivier'
p1227
I3
sS'How France'
p1228
I11
sS'Trey Gowdy'
p1229
I52
sS'Emily Gilmore'
p1230
I25
sS'My Seat'
p1231
I4
sS'York Mellon'
p1232
I4
sS'App City'
p1233
I2
sS'In Africa'
p1234
I1
sS'Case New'
p1235
I1
sS'Late Prime'
p1236
I1
sS'Martin Shkreli'
p1237
I27
sS'Jason Mann'
p1238
I4
sS'Cancer Walk'
p1239
I1
sS'Ralph Loura'
p1240
I64
sS'Will No'
p1241
I12
sS'Stewart Signs'
p1242
I23
sS'Million Fine'
p1243
I8
sS'Blue America'
p1244
I1
sS'Best Place'
p1245
I1
sS'Union Square'
p1246
I5
sS'Virginia Senate'
p1247
I2
sS'Her Ground'
p1248
I1
sS'Threat From'
p1249
I11
sS'New Jupiter'
p1250
I3
sS'Kim Jong'
p1251
I27
sS'Times Best'
p1252
I89
sS'No Police'
p1253
I2
sS'Fail Early'
p1254
I6
sS'Sinks Off'
p1255
I19
sS'Goes Savory'
p1256
I24
sS'Joseph Duffy'
p1257
I2
sS'Kardashian Lamar'
p1258
I3
sS'Hamm Talk'
p1259
I51
sS'Ben Affleck'
p1260
I6
sS'Pain Point'
p1261
I24
sS'Iman Shumpert'
p1262
I9
sS'Lowers Economy'
p1263
I1
sS'March Held'
p1264
I4
sS'Maureen Dowd'
p1265
I47
sS'How Houston'
p1266
I1
sS'Wilde Lake'
p1267
I2
sS'David Wolpe'
p1268
I28
sS'High Stakes'
p1269
I42
sS'Kaley Cuoco'
p1270
I9
sS'Win Big'
p1271
I2
sS'New Study'
p1272
I20
sS'Dials Back'
p1273
I48
sS'Be Done'
p1274
I3
sS'Home You'
p1275
I2
sS'Jerry Rice'
p1276
I3
sS'Him Off'
p1277
I1
sS'Most Days'
p1278
I2
sS'School Gun'
p1279
I1
sS'In Syria'
p1280
I23
sS'Just Tease'
p1281
I1
sS'Case Shows'
p1282
I5
sS'Bill Ackman'
p1283
I47
sS'Degree May'
p1284
I1
sS'Pain May'
p1285
I2
sS'Welcome Every'
p1286
I15
sS'Board Members'
p1287
I40
sS'Hudson City'
p1288
I1
sS'Look Do'
p1289
I3
sS'Tristan Wilds'
p1290
I1
sS'New Russian'
p1291
I2
sS'Every Monday'
p1292
I1
sS'Police Union'
p1293
I6
sS'In Man'
p1294
I4
sS'Small Plane'
p1295
I11
sS'Why Jon'
p1296
I1
sS'Angeles Council'
p1297
I1
sS'How Matter'
p1298
I26
sS'Ingels Dies'
p1299
I7
sS'Goes Clinton'
p1300
I2
sS'Why Joe'
p1301
I9
sS'Why Tipping'
p1302
I8
sS'End On'
p1303
I1
sS'Francisco Vote'
p1304
I10
sS'From Coma'
p1305
I7
sS'Kardashian Will'
p1306
I1
sS'Net Worth'
p1307
I3
sS'Old German'
p1308
I1
sS'Lamar Miller'
p1309
I2
sS'Klay Thompson'
p1310
I1
sS'Why Wrigley'
p1311
I24
sS'Terrence Ross'
p1312
I1
sS'Scarlett Johansson'
p1313
I49
sS'Begin Push'
p1314
I1
sS'Why Hillary'
p1315
I13
sS'Hole In'
p1316
I1
sS'Moss Gathers'
p1317
I23
sS'In Lee'
p1318
I23
sS'Greek Banks'
p1319
I80
sS'Gayle King'
p1320
I4
sS'Stevens Cover'
p1321
I2
sS'You Pay'
p1322
I6
sS'New Old'
p1323
I32
sS'Stem Flow'
p1324
I2
sS'Ed Sheeran'
p1325
I2
sS'Frederick Wiseman'
p1326
I2
sS'Miners Keep'
p1327
I13
sS'School Sword'
p1328
I17
sS'Son Takes'
p1329
I1
sS'Short Sellers'
p1330
I26
sS'Than Most'
p1331
I18
sS'Rather Than'
p1332
I32
sS'Aaron Sorkin'
p1333
I10
sS'Why Emma'
p1334
I33
sS'Cooper Try'
p1335
I2
sS'Joel Ward'
p1336
I1
sS'Matt Harvey'
p1337
I59
sS'Red Cross'
p1338
I3
sS'Muni Bonds'
p1339
I84
sS'Joanna Newsom'
p1340
I4
sS'Music Games'
p1341
I24
sS'Song During'
p1342
I1
sS'David Shield'
p1343
I2
sS'Van Dyke'
p1344
I2
sS'King Charles'
p1345
I2
sS'London During'
p1346
I1
sS'Gray Matter'
p1347
I15
sS'City Mayor'
p1348
I1
sS'Maxim Said'
p1349
I1
sS'Early States'
p1350
I6
sS'Tommy Cross'
p1351
I1
sS'Rob Kardashian'
p1352
I4
sS'Will Push'
p1353
I6
sS'Better Cheese'
p1354
I2
sS'Police Officer'
p1355
I25
sS'Tom Coughlin'
p1356
I3
sS'Chris Davis'
p1357
I79
sS'Tom Lawless'
p1358
I1
sS'Jimmy Fallon'
p1359
I335
sS'Real Women'
p1360
I1
sS'Profit More'
p1361
I11
sS'Tamra Judge'
p1362
I1
sS'Brett Stegmaier'
p1363
I4
sS'Tell Me'
p1364
I3
sS'Sale Monday'
p1365
I4
sS'Wins Back'
p1366
I6
sS'Storms Batter'
p1367
I1
sS'Bart Simpson'
p1368
I28
sS'Said No'
p1369
I1
sS'Back From'
p1370
I20
sS'Ryan Has'
p1371
I8
sS'Ways To'
p1372
I1
sS'Mara Brock'
p1373
I49
sS'Justin Theroux'
p1374
I82
sS'Faster Pace'
p1375
I6
sS'Kraft Heinz'
p1376
I16
sS'Love In'
p1377
I1
sS'From Mooring'
p1378
I1
sS'Officer Randolph'
p1379
I16
sS'Hush Money'
p1380
I8
sS'Marble Every'
p1381
I3
sS'Strain Job'
p1382
I1
sS'World Congress'
p1383
I1
sS'Ellen Kullman'
p1384
I3
sS'How Korn'
p1385
I22
sS'Christie Win'
p1386
I9
sS'Falls Most'
p1387
I2
sS'Keep Student'
p1388
I1
sS'Has Left'
p1389
I2
sS'City Council'
p1390
I109
sS'Bob Carpenter'
p1391
I1
sS'Paul Singer'
p1392
I13
sS'Long Wait'
p1393
I2
sS'More Grim'
p1394
I19
sS'London Art'
p1395
I3
sS'How Other'
p1396
I1
sS'Hard Cash'
p1397
I1
sS'Norman Kali'
p1398
I2
sS'Jan Wallman'
p1399
I16
sS'Hollywood Home'
p1400
I3
sS'Wins Gains'
p1401
I2
sS'Son Will'
p1402
I1
sS'End Soon'
p1403
I2
sS'Small Screen'
p1404
I1
sS'Be Less'
p1405
I1
sS'To Punch'
p1406
I2
sS'Sit Down'
p1407
I1
sS'Mass Raid'
p1408
I14
sS'Martin Marietta'
p1409
I1
sS'Heart Button'
p1410
I2
sS'Be John'
p1411
I6
sS'Say Hillary'
p1412
I1
sS'Maryland Bride'
p1413
I3
sS'Hands On'
p1414
I1
sS'Story Mode'
p1415
I10
sS'Nomura Profit'
p1416
I3
sS'Even More'
p1417
I3
sS'No Orange'
p1418
I1
sS'On Verge'
p1419
I1
sS'In My'
p1420
I1
sS'Down From'
p1421
I25
sS'Jamie Chung'
p1422
I1
sS'You German'
p1423
I1
sS'Crews Free'
p1424
I1
sS'Susanna Quinn'
p1425
I77
sS'No Simple'
p1426
I4
sS'Cook Said'
p1427
I11
sS'Than Wine'
p1428
I18
sS'Life Story'
p1429
I7
sS'Lizzie Velasquez'
p1430
I99
sS'David Alan'
p1431
I1
sS'New Danger'
p1432
I9
sS'Friday Tennis'
p1433
I1
sS'Long Locks'
p1434
I1
sS'Gave Him'
p1435
I74
sS'Trey Williams'
p1436
I1
sS'Rides Lofty'
p1437
I18
sS'Breeding Killer'
p1438
I1
sS'Back Over'
p1439
I1
sS'Webb Warns'
p1440
I6
sS'Home May'
p1441
I1
sS'Little Big'
p1442
I5
sS'Richard Lakin'
p1443
I1
sS'Sherlock Holmes'
p1444
I58
sS'In Hand'
p1445
I1
sS'Black Drummer'
p1446
I12
sS'Aid Sells'
p1447
I1
sS'Helen Arnold'
p1448
I24
sS'How Cuba'
p1449
I1
sS'Say Blue'
p1450
I10
sS'From School'
p1451
I3
sS'Client Dies'
p1452
I1
sS'Us Read'
p1453
I1
sS'Double Life'
p1454
I20
sS'Center Honor'
p1455
I19
sS'New Tone'
p1456
I21
sS'Bush Spar'
p1457
I2
sS'Royals Hint'
p1458
I10
sS'Body Found'
p1459
I2
sS'Gold May'
p1460
I17
sS'Quince Orchard'
p1461
I6
sS'Tilda Swinton'
p1462
I1
sS'Neither Will'
p1463
I2
sS'Coach Vaughn'
p1464
I2
sS'Captain Jack'
p1465
I1
sS'Home Page'
p1466
I537
sS'Cranston Has'
p1467
I1
sS'Natalie Portman'
p1468
I24
sS'Pitch Has'
p1469
I9
sS'Carmen Miranda'
p1470
I25
sS'Mel Daniels'
p1471
I5
sS'Shirley Jones'
p1472
I17
sS'People From'
p1473
I2
sS'Anthony Glasgow'
p1474
I1
sS'Langley Park'
p1475
I1
sS'Bar Germaine'
p1476
I36
sS'Be First'
p1477
I1
sS'Man Rams'
p1478
I1
sS'Living Room'
p1479
I28
sS'World Peace'
p1480
I5
sS'Stake In'
p1481
I2
sS'Cosby During'
p1482
I4
sS'Found Man'
p1483
I1
sS'Town First'
p1484
I19
sS'Hero Spencer'
p1485
I4
sS'Brett Gardner'
p1486
I11
sS'Off Broadway'
p1487
I5
sS'Clinton Wins'
p1488
I56
sS'You During'
p1489
I1
sS'In Times'
p1490
I1
sS'Reach Record'
p1491
I1
sS'Charlie Savage'
p1492
I9
sS'Rolling On'
p1493
I2
sS'Josh Hutcherson'
p1494
I2
sS'Why Boards'
p1495
I4
sS'Canada Turns'
p1496
I24
sS'Be El'
p1497
I65
sS'Eye More'
p1498
I17
sS'James Holmes'
p1499
I31
sS'Left Off'
p1500
I1
sS'Books Offer'
p1501
I4
sS'Sales Rise'
p1502
I39
sS'Fire To'
p1503
I49
sS'Baker Hughes'
p1504
I10
sS'Win First'
p1505
I26
sS'More Goods'
p1506
I42
sS'Shake Off'
p1507
I2
sS'Holding You'
p1508
I1
sS'From Home'
p1509
I1
sS'Dark On'
p1510
I1
sS'From Britain'
p1511
I2
sS'Johnny Galecki'
p1512
I3
sS'Fine Line'
p1513
I3
sS'Top Aide'
p1514
I1
sS'No Mention'
p1515
I6
sS'Tell Stephen'
p1516
I3
sS'Tom Cruise'
p1517
I5
sS'Assad Needs'
p1518
I16
sS'Elm Streets'
p1519
I1
sS'To Ryan'
p1520
I2
sS'Imperial Tobacco'
p1521
I6
sS'Mail Takes'
p1522
I3
sS'Test Can'
p1523
I1
sS'Levels Drop'
p1524
I2
sS'Job Harder'
p1525
I5
sS'Big Bank'
p1526
I24
sS'Dale Earnhardt'
p1527
I6
sS'To House'
p1528
I3
sS'Goods May'
p1529
I2
sS'Over Ryan'
p1530
I1
sS'New Gray'
p1531
I1
sS'Carolina Will'
p1532
I5
sS'Offer New'
p1533
I15
sS'To Host'
p1534
I1
sS'Be How'
p1535
I3
sS'New Grad'
p1536
I1
sS'Erin Andrews'
p1537
I1
sS'Hong Kong'
p1538
I111
sS'Jack Dickey'
p1539
I98
sS'Larry Page'
p1540
I28
sS'New Heart'
p1541
I5
sS'Sell Wind'
p1542
I3
sS'First Drop'
p1543
I3
sS'Why Buffalo'
p1544
I1
sS'In Drones'
p1545
I3
sS'Why Caitlyn'
p1546
I1
sS'Surprise Loss'
p1547
I3
sS'Red Sox'
p1548
I35
sS'Frank Sinatra'
p1549
I3
sS'Stake Due'
p1550
I1
sS'Frank Beamer'
p1551
I7
sS'Must Pay'
p1552
I34
sS'Christian Brooks'
p1553
I1
sS'New Perks'
p1554
I4
sS'Second Chance'
p1555
I164
sS'New Hillary'
p1556
I48
sS'Bill Murray'
p1557
I55
sS'Takes New'
p1558
I27
sS'Andre Dawson'
p1559
I1
sS'In Candy'
p1560
I1
sS'Her Hand'
p1561
I3
sS'Sue Over'
p1562
I46
sS'Work Just'
p1563
I15
sS'Shaun White'
p1564
I6
sS'House Price'
p1565
I2
sS'In Northern'
p1566
I3
sS'No More'
p1567
I23
sS'David Einhorn'
p1568
I1
sS'Last Ice'
p1569
I1
sS'Linda Greenhouse'
p1570
I2
sS'Yellen Turns'
p1571
I22
sS'John Irving'
p1572
I94
sS'Poll Shows'
p1573
I37
sS'Ice Rather'
p1574
I1
sS'Baylor Bears'
p1575
I1
sS'Student Dies'
p1576
I2
sS'Faster Than'
p1577
I10
sS'Big Apple'
p1578
I16
sS'Wilbur Ross'
p1579
I4
sS'Tier Area'
p1580
I3
sS'Squibb China'
p1581
I23
sS'Russian Men'
p1582
I19
sS'Men Still'
p1583
I12
sS'Times Over'
p1584
I4
sS'An Artist'
p1585
I3
sS'Police Bar'
p1586
I8
sS'How Richard'
p1587
I7
sS'Over Houston'
p1588
I22
sS'Dominic Cooper'
p1589
I1
sS'Save More'
p1590
I1
sS'Jordan Smith'
p1591
I49
sS'Try Bush'
p1592
I2
sS'Rod Stewart'
p1593
I80
sS'Hard Line'
p1594
I25
sS'Police Raid'
p1595
I50
sS'Kong Share'
p1596
I2
sS'Takes Key'
p1597
I1
sS'Derwin Gray'
p1598
I2
sS'Draft Arab'
p1599
I1
sS'Moment From'
p1600
I3
sS'State Lines'
p1601
I2
sS'You Say'
p1602
I1
sS'Faro Cargo'
p1603
I45
sS'Che Guevara'
p1604
I1
sS'More Fast'
p1605
I1
sS'Black Women'
p1606
I69
sS'Coach Todd'
p1607
I3
sS'Cash From'
p1608
I3
sS'Off Them'
p1609
I34
sS'Mamie Gummer'
p1610
I16
sS'Phoenix Suns'
p1611
I2
sS'Congress Why'
p1612
I1
sS'Larry Hogan'
p1613
I4
sS'Lindsey Graham'
p1614
I23
sS'In Marine'
p1615
I1
sS'Will Reach'
p1616
I3
sS'Why Wheat'
p1617
I6
sS'Best James'
p1618
I1
sS'Smart Lock'
p1619
I12
sS'Cancer Want'
p1620
I1
sS'Double Standard'
p1621
I1
sS'North Cleveland'
p1622
I70
sS'Halle Berry'
p1623
I50
sS'Student List'
p1624
I1
sS'No Lucky'
p1625
I17
sS'App Right'
p1626
I4
sS'Tyler Seguin'
p1627
I9
sS'Can Paul'
p1628
I2
sS'New Levels'
p1629
I1
sS'Going Dark'
p1630
I1
sS'Torn Over'
p1631
I1
sS'El Faro'
p1632
I104
sS'Koch Brothers'
p1633
I2
sS'Over Blue'
p1634
I23
sS'Buys Back'
p1635
I16
sS'Western Wall'
p1636
I18
sS'How Stella'
p1637
I58
sS'Numbers You'
p1638
I1
sS'Ends Bear'
p1639
I2
sS'Speaker John'
p1640
I7
sS'Come Back'
p1641
I5
sS'Orange Towels'
p1642
I6
sS'Odom Still'
p1643
I2
sS'Wild Salmon'
p1644
I1
sS'Dianne Feinstein'
p1645
I19
sS'To Thomas'
p1646
I11
sS'Evangeline Moore'
p1647
I7
sS'Living Center'
p1648
I3
sS'Fee Hikes'
p1649
I1
sS'Casey Allen'
p1650
I2
sS'You Ask'
p1651
I18
sS'Rand Paul'
p1652
I55
sS'Scott Kelly'
p1653
I37
sS'State Has'
p1654
I26
sS'Top Ranks'
p1655
I6
sS'Alfred Hitchcock'
p1656
I41
sS'Single Best'
p1657
I3
sS'Florida Ends'
p1658
I2
sS'Carolina Student'
p1659
I1
sS'New Tack'
p1660
I17
sS'Mars Music'
p1661
I1
sS'In First'
p1662
I59
sS'Denver Park'
p1663
I2
sS'Off Trump'
p1664
I4
sS'Ariel Winter'
p1665
I6
sS'Victory Over'
p1666
I26
sS'Single Commander'
p1667
I1
sS'My Job'
p1668
I3
sS'Asia Stocks'
p1669
I2
sS'Most People'
p1670
I4
sS'Pilot Union'
p1671
I4
sS'In Season'
p1672
I1
sS'Hubert Found'
p1673
I6
sS'Lawrence Net'
p1674
I2
sS'Sharp Profit'
p1675
I9
sS'Rob Ford'
p1676
I1
sS'Plan More'
p1677
I6
sS'Sandberg Has'
p1678
I3
sS'China Over'
p1679
I15
sS'Lambert Will'
p1680
I3
sS'Jason Aron'
p1681
I2
sS'Will Cost'
p1682
I1
sS'Britain Will'
p1683
I1
sS'Can Sue'
p1684
I40
sS'Era Found'
p1685
I2
sS'All Bad'
p1686
I27
sS'Will Soon'
p1687
I33
sS'Louis Smolka'
p1688
I1
sS'Burns Much'
p1689
I6
sS'Abby Lee'
p1690
I12
sS'Store Why'
p1691
I3
sS'My Parents'
p1692
I166
sS'Regal Look'
p1693
I3
sS'You Will'
p1694
I1
sS'Jonathan Kraft'
p1695
I1
sS'Leader Manuel'
p1696
I3
sS'Flavors You'
p1697
I117
sS'People Less'
p1698
I1
sS'Warner May'
p1699
I1
sS'From Christo'
p1700
I29
sS'Care May'
p1701
I44
sS'Lewy Body'
p1702
I4
sS'Why Big'
p1703
I24
sS'Kevin In'
p1704
I5
sS'Stocks Start'
p1705
I1
sS'Tim Hardaway'
p1706
I1
sS'Rahm Emanuel'
p1707
I7
sS'You Grow'
p1708
I3
sS'Big Gains'
p1709
I32
sS'Ends Share'
p1710
I2
sS'Charles Severance'
p1711
I22
sS'Jim Larranaga'
p1712
I1
sS'In San'
p1713
I4
sS'School Student'
p1714
I20
sS'South Lakes'
p1715
I2
sS'Sherrod Brown'
p1716
I1
sS'More On'
p1717
I2
sS'Caitlyn Jenner'
p1718
I30
sS'Killings Brought'
p1719
I2
sS'Plane Fire'
p1720
I1
sS'In Somerset'
p1721
I42
sS'In Canada'
p1722
I7
sS'Top French'
p1723
I1
sS'End Syria'
p1724
I4
sS'Sanders Walking'
p1725
I5
sS'Art Show'
p1726
I19
sS'China Rolls'
p1727
I27
sS'Market Tank'
p1728
I11
sS'Moon Sells'
p1729
I2
sS'Jenner Fears'
p1730
I1
sS'Oak Brook'
p1731
I1
sS'Perfect Choice'
p1732
I1
sS'Raymond James'
p1733
I1
sS'Can Hillary'
p1734
I3
sS'Center Stage'
p1735
I76
sS'Why Second'
p1736
I73
sS'Bees More'
p1737
I2
sS'High Strain'
p1738
I1
sS'Charlie Crist'
p1739
I4
sS'New Record'
p1740
I2
sS'Right Arm'
p1741
I1
sS'New Wage'
p1742
I4
sS'Sports Said'
p1743
I9
sS'New Weather'
p1744
I4
sS'Arthur Miller'
p1745
I6
sS'Doe Case'
p1746
I1
sS'Steve Ballmer'
p1747
I8
sS'In Human'
p1748
I1
sS'Double Star'
p1749
I1
sS'Plane Points'
p1750
I1
sS'Yuan Down'
p1751
I2
sS'Walter Johnson'
p1752
I2
sS'Lions Heading'
p1753
I4
sS'Fill In'
p1754
I4
sS'Flood Threat'
p1755
I2
sS'Dylan Thomas'
p1756
I1
sS'Pebbles On'
p1757
I2
sS'In Court'
p1758
I1
sS'Sydney Keating'
p1759
I1
sS'Teach Older'
p1760
I2
sS'Bill Keith'
p1761
I3
sS'Best Chance'
p1762
I4
sS'Joe Jonas'
p1763
I5
sS'Bring Back'
p1764
I10
sS'Like Human'
p1765
I2
sS'Jordan Peele'
p1766
I6
sS'Nino Will'
p1767
I1
sS'Chris Pontius'
p1768
I1
sS'Cary Fukunaga'
p1769
I61
sS'Alvin Gentry'
p1770
I1
sS'Over Osborne'
p1771
I2
sS'Golden Age'
p1772
I10
sS'Iron Works'
p1773
I2
sS'Still Works'
p1774
I70
sS'Profit Falls'
p1775
I27
sS'Job Market'
p1776
I33
sS'Wild Pitch'
p1777
I9
sS'Rashid Johnson'
p1778
I5
sS'Aaron Loup'
p1779
I1
sS'Can No'
p1780
I5
sS'David Lemieux'
p1781
I6
sS'Deputy Dies'
p1782
I5
sS'New App'
p1783
I2
sS'Golden State'
p1784
I5
sS'Justice Party'
p1785
I3
sS'Off West'
p1786
I2
sS'Andrew Left'
p1787
I8
sS'Blood Test'
p1788
I45
sS'Price London'
p1789
I78
sS'Than You'
p1790
I137
sS'Less Money'
p1791
I7
sS'House Suit'
p1792
I1
sS'To End'
p1793
I2
sS'Deal Falls'
p1794
I21
sS'Steve Nash'
p1795
I1
sS'See Her'
p1796
I9
sS'He Heard'
p1797
I1
sS'Banks Lock'
p1798
I17
sS'Bradley Cooper'
p1799
I177
sS'Law Trumps'
p1800
I8
sS'Rose Faster'
p1801
I5
sS'How Police'
p1802
I1
sS'Huge Fine'
p1803
I32
sS'Offer Smaller'
p1804
I21
sS'Campus Leader'
p1805
I1
sS'President Jimmy'
p1806
I2
sS'Boots Seal'
p1807
I4
sS'Pat Houston'
p1808
I6
sS'To Test'
p1809
I2
sS'Sales Figures'
p1810
I8
sS'Ban Gay'
p1811
I4
sS'Found Love'
p1812
I1
sS'Just In'
p1813
I2
sS'Congo Police'
p1814
I7
sS'Forest Service'
p1815
I3
sS'Ask Real'
p1816
I3
sS'Longest Running'
p1817
I2
sS'Matt Kuchar'
p1818
I1
sS'To Better'
p1819
I2
sS'Sunday Strike'
p1820
I1
sS'Ian Curtis'
p1821
I2
sS'Free Coffee'
p1822
I1
sS'Tally Shows'
p1823
I1
sS'Old Town'
p1824
I2
sS'Bieber Storms'
p1825
I1
sS'Barry Trotz'
p1826
I8
sS'Curry Stops'
p1827
I58
sS'Show Us'
p1828
I4
sS'Why Drone'
p1829
I1
sS'Barry Allen'
p1830
I1
sS'Due In'
p1831
I4
sS'Short Hair'
p1832
I70
sS'Win So'
p1833
I24
sS'But Bottom'
p1834
I3
sS'Pope Francis'
p1835
I90
sS'Albany Student'
p1836
I1
sS'Jason Chimera'
p1837
I1
sS'Richard Cardamone'
p1838
I18
sS'President Assad'
p1839
I22
sS'Police Clear'
p1840
I1
sS'Million Loan'
p1841
I3
sS'Harlem River'
p1842
I22
sS'Stock Can'
p1843
I25
sS'Her Party'
p1844
I4
sS'South China'
p1845
I286
sS'You Learned'
p1846
I88
sS'Ryan Lewis'
p1847
I94
sS'Morning Risk'
p1848
I183
sS'Too Late'
p1849
I7
sS'Sandusky Due'
p1850
I1
sS'Angry Women'
p1851
I2
sS'First Major'
p1852
I1
sS'Market Takes'
p1853
I17
sS'Stars George'
p1854
I1
sS'Both Parents'
p1855
I1
sS'Fly Over'
p1856
I2
sS'Grand Jury'
p1857
I1
sS'East Europe'
p1858
I5
sS'Tobacco Profit'
p1859
I1
sS'Stay Safe'
p1860
I3
sS'Richer Deal'
p1861
I11
sS'No Such'
p1862
I29
sS'Lamar Has'
p1863
I3
sS'Many Montgomery'
p1864
I1
sS'Holmes Lake'
p1865
I3
sS'Cate Blanchet'
p1866
I1
sS'More Ways'
p1867
I16
sS'Clinton Will'
p1868
I3
sS'Rake In'
p1869
I9
sS'Her Too'
p1870
I35
sS'College Board'
p1871
I5
sS'Best Jobs'
p1872
I1
sS'Cue From'
p1873
I1
sS'Means Danger'
p1874
I2
sS'Stocks Steady'
p1875
I20
sS'How To'
p1876
I5
sS'Women Start'
p1877
I1
sS'On Tinder'
p1878
I16
sS'Profit Hurt'
p1879
I9
sS'Sierra Leone'
p1880
I1
sS'Friendly Tone'
p1881
I11
sS'Mark Turgeon'
p1882
I2
sS'Age To'
p1883
I1
sS'Good Days'
p1884
I1
sS'Police Divers'
p1885
I19
sS'Town Hall'
p1886
I6
sS'Near You'
p1887
I1
sS'Cross Border'
p1888
I1
sS'Jersey Fire'
p1889
I1
sS'Paul Ryan'
p1890
I553
sS'School To'
p1891
I2
sS'Why Rubio'
p1892
I1
sS'Over South'
p1893
I4
sS'Dollar May'
p1894
I3
sS'Jump Fails'
p1895
I1
sS'In Half'
p1896
I1
sS'Will Step'
p1897
I4
sS'Daniel Webster'
p1898
I1
sS'Sue Board'
p1899
I40
sS'Lease Sales'
p1900
I2
sS'David Spade'
p1901
I5
sS'Jamaica Bay'
p1902
I17
sS'Large Money'
p1903
I31
sS'House Quiet'
p1904
I1
sS'Cake Balls'
p1905
I3
sS'City Police'
p1906
I4
sS'Blake Griffin'
p1907
I3
sS'Why Oscar'
p1908
I1
sS'Dell May'
p1909
I2
sS'Hand In'
p1910
I1
sS'Child Star'
p1911
I27
sS'Jason Whitlock'
p1912
I1
sS'In Pacific'
p1913
I7
sS'Line Army'
p1914
I14
sS'Assad Comes'
p1915
I1
sS'An Apple'
p1916
I1
sS'Tony Abbott'
p1917
I3
sS'Chase Down'
p1918
I1
sS'Jackie Chan'
p1919
I1
sS'Bryce Harper'
p1920
I3
sS'Christie Takes'
p1921
I25
sS'No New'
p1922
I3
sS'Be Near'
p1923
I6
sS'Deal To'
p1924
I1
sS'James Staley'
p1925
I1
sS'Carmen Carrera'
p1926
I1
sS'To Florida'
p1927
I47
sS'Cheese Plate'
p1928
I2
sS'Blue Ivy'
p1929
I5
sS'Jobs Rose'
p1930
I23
sS'Keenan Allen'
p1931
I2
sS'Dry Autumn'
p1932
I1
sS'Odom To'
p1933
I1
sS'Better Standard'
p1934
I3
sS'From Market'
p1935
I3
sS'Lessig Ends'
p1936
I2
sS'Work Ran'
p1937
I12
sS'Craft Over'
p1938
I4
sS'Mock Drake'
p1939
I3
sS'Kill You'
p1940
I2
sS'Shirley Temples'
p1941
I1
sS'Russell Martin'
p1942
I9
sS'Fox Lake'
p1943
I16
sS'Ackman Mounts'
p1944
I20
sS'Old School'
p1945
I19
sS'Kendall Dies'
p1946
I2
sS'From Storm'
p1947
I1
sS'Fake Ben'
p1948
I1
sS'Heather Jones'
p1949
I40
sS'Tune In'
p1950
I2
sS'Big Stakes'
p1951
I1
sS'Serve Him'
p1952
I4
sS'Market Sees'
p1953
I15
sS'Duck Burger'
p1954
I1
sS'To Craft'
p1955
I3
sS'Delta Profit'
p1956
I3
sS'Jarrett Stidham'
p1957
I1
sS'Listen To'
p1958
I50
sS'On Black'
p1959
I23
sS'Nick Mangold'
p1960
I1
sS'New Battle'
p1961
I3
sS'Other Boys'
p1962
I1
sS'Red States'
p1963
I2
sS'Renault Board'
p1964
I10
sS'Best Friends'
p1965
I67
sS'State Campus'
p1966
I10
sS'Bring Minor'
p1967
I1
sS'Ron Paul'
p1968
I11
sS'David Beckham'
p1969
I69
sS'Long Way'
p1970
I14
sS'First New'
p1971
I14
sS'Nations Lose'
p1972
I15
sS'Tell You'
p1973
I2
sS'Mom Bars'
p1974
I3
sS'Sanders Spar'
p1975
I8
sS'Car Maker'
p1976
I1
sS'Life Church'
p1977
I17
sS'Weight Loss'
p1978
I3
sS'Minister Victor'
p1979
I1
sS'Like Apple'
p1980
I6
sS'South River'
p1981
I2
sS'Jim Bob'
p1982
I3
sS'Cloud Takes'
p1983
I41
sS'Bayer Lowers'
p1984
I2
sS'May Plan'
p1985
I6
sS'Blaine Gabbert'
p1986
I7
sS'Dan Jennings'
p1987
I1
sS'John Kerry'
p1988
I33
sS'High Stocks'
p1989
I1
sS'Adam Selman'
p1990
I2
sS'Chandler Stephenson'
p1991
I1
sS'Wes Anderson'
p1992
I3
sS'Bulls Player'
p1993
I63
sS'Sheila Jordan'
p1994
I52
sS'Thornton Star'
p1995
I1
sS'May Settle'
p1996
I18
sS'Square Garden'
p1997
I9
sS'Them High'
p1998
I4
sS'Coach Hugh'
p1999
I2
sS'Points To'
p2000
I1
sS'Williams Ran'
p2001
I1
sS'Melissa Chiu'
p2002
I26
sS'West Palm'
p2003
I1
sS'Top General'
p2004
I6
sS'New Bank'
p2005
I4
sS'Police Over'
p2006
I5
sS'June Vote'
p2007
I5
sS'Quest To'
p2008
I51
sS'Falling Prey'
p2009
I1
sS'Rico Aid'
p2010
I7
sS'Europe Stocks'
p2011
I2
sS'Reveal Why'
p2012
I1
sS'Shows Gains'
p2013
I1
sS'Sales Jump'
p2014
I3
sS'Star Al'
p2015
I1
sS'Best Worst'
p2016
I22
sS'Top Art'
p2017
I4
sS'Luke Walton'
p2018
I1
sS'Kardashian Shows'
p2019
I4
sS'Ben Sasse'
p2020
I2
sS'Gamble Sales'
p2021
I15
sS'Ryan Be'
p2022
I2
sS'Days Star'
p2023
I1
sS'Bank Stands'
p2024
I1
sS'Church Drummer'
p2025
I1
sS'Best Fix'
p2026
I1
sS'Rhode Island'
p2027
I23
sS'Hillary Be'
p2028
I23
sS'Generous Than'
p2029
I5
sS'Quintin Berry'
p2030
I1
sS'Miss Much'
p2031
I19
sS'Gold Perks'
p2032
I1
sS'Tyler Clippard'
p2033
I40
sS'Michael Collins'
p2034
I1
sS'Snow Princess'
p2035
I3
sS'Day Arthur'
p2036
I3
sS'See Bernie'
p2037
I4
sS'All Washington'
p2038
I2
sS'Music Trumps'
p2039
I1
sS'Viola Davis'
p2040
I5
sS'Spikes Monday'
p2041
I1
sS'London Games'
p2042
I2
sS'Start Eddie'
p2043
I1
sS'Place New'
p2044
I1
sS'Nine People'
p2045
I4
sS'From Daniel'
p2046
I57
sS'Spanish Banks'
p2047
I23
sS'Offer Free'
p2048
I49
sS'Lands Punches'
p2049
I1
sS'Odom Call'
p2050
I2
sS'Condo Tower'
p2051
I30
sS'Florida Farm'
p2052
I1
sS'How Debbie'
p2053
I19
sS'Maine Nurse'
p2054
I1
sS'Hidden Reasons'
p2055
I20
sS'From Israel'
p2056
I2
sS'Writer Bob'
p2057
I4
sS'Del Toro'
p2058
I5
sS'Lot More'
p2059
I2
sS'Nancy Dunning'
p2060
I4
sS'Race May'
p2061
I45
sS'First Round'
p2062
I14
sS'Black Hole'
p2063
I10
sS'Surprise Profit'
p2064
I74
sS'Hefty Loss'
p2065
I18
sS'Lindsay Lohan'
p2066
I105
sS'Walt Disney'
p2067
I1
sS'Carolyn Colvin'
p2068
I1
sS'Sacramento Kings'
p2069
I1
sS'Andrew Colt'
p2070
I5
sS'On Tennis'
p2071
I9
sS'Modest Start'
p2072
I7
sS'No Man'
p2073
I1
sS'Mill Mock'
p2074
I3
sS'Spring Will'
p2075
I1
sS'Hilton Profit'
p2076
I1
sS'Fargo Rides'
p2077
I3
sS'Media Study'
p2078
I1
sS'College Park'
p2079
I10
sS'Why Fox'
p2080
I4
sS'Found On'
p2081
I1
sS'John Henson'
p2082
I2
sS'Craft Beer'
p2083
I1
sS'My Party'
p2084
I1
sS'Stevie Wonder'
p2085
I3
sS'Jim Kelly'
p2086
I1
sS'Why More'
p2087
I2
sS'Fox Hope'
p2088
I1
sS'Brian Donovan'
p2089
I45
sS'Thomas Blatt'
p2090
I20
sS'Start Sunday'
p2091
I5
sS'Barry Zito'
p2092
I3
sS'Argentina Vote'
p2093
I7
sS'Seen Short'
p2094
I2
sS'Close Portland'
p2095
I1
sS'Condo Sells'
p2096
I25
sS'First Lady'
p2097
I40
sS'China Summons'
p2098
I5
sS'Than Half'
p2099
I4
sS'Amber Alert'
p2100
I8
sS'Down Hill'
p2101
I1
sS'Tell Terrible'
p2102
I43
sS'Hurt Clinton'
p2103
I30
sS'Legacy Will'
p2104
I1
sS'Close Battle'
p2105
I6
sS'How Ronda'
p2106
I1
sS'Clinton Has'
p2107
I3
sS'Norman Reedus'
p2108
I4
sS'Sanders Points'
p2109
I3
sS'Clinton Speaks'
p2110
I10
sS'Black Sing'
p2111
I1
sS'Swiss Town'
p2112
I2
sS'Hack Less'
p2113
I75
sS'From Syria'
p2114
I11
sS'Hang Seng'
p2115
I3
sS'Too Loud'
p2116
I5
sS'Alfred Blue'
p2117
I1
sS'In World'
p2118
I21
sS'Jamie Colby'
p2119
I43
sS'Start Drone'
p2120
I2
sS'Southern City'
p2121
I1
sS'Davis Polk'
p2122
I119
sS'Lay Off'
p2123
I2
sS'New San'
p2124
I11
sS'Fall Big'
p2125
I79
sS'Flies South'
p2126
I20
sS'Bryan Cranston'
p2127
I5
sS'Off Stage'
p2128
I4
sS'Economy Cools'
p2129
I3
sS'Over Black'
p2130
I3
sS'Older Guys'
p2131
I9
sS'Eugene Smith'
p2132
I5
sS'Johnny Still'
p2133
I24
sS'States May'
p2134
I1
sS'Robert Kraft'
p2135
I4
sS'Dusty Baker'
p2136
I60
sS'In June'
p2137
I1
sS'Lower Fuel'
p2138
I6
sS'Still Go'
p2139
I1
sS'Deal Will'
p2140
I3
sS'Mary Karr'
p2141
I25
sS'Late Sun'
p2142
I7
sS'Ryan Lands'
p2143
I12
sS'Freddie Roach'
p2144
I1
sS'John Malone'
p2145
I1
sS'In Asia'
p2146
I1
sS'Favors Vote'
p2147
I5
sS'Aaron Huey'
p2148
I2
sS'Age Well'
p2149
I93
sS'Tracey Stewart'
p2150
I2
sS'Mark Murphy'
p2151
I21
sS'Mood Just'
p2152
I1
sS'First Step'
p2153
I1
sS'Christie Brinkley'
p2154
I1
sS'End Gun'
p2155
I2
sS'Party From'
p2156
I1
sS'Gray Market'
p2157
I1
sS'Ricardo Lockette'
p2158
I3
sS'Scale Back'
p2159
I22
sS'Rising Fees'
p2160
I11
sS'Anne Arundel'
p2161
I21
sS'Royals Beat'
p2162
I51
sS'Study Heart'
p2163
I9
sS'Talk Shows'
p2164
I12
sS'Christopher Stevens'
p2165
I20
sS'How Solar'
p2166
I1
sS'Over Tweet'
p2167
I2
sS'Assad Favors'
p2168
I5
sS'Nation To'
p2169
I1
sS'Angeles City'
p2170
I1
sS'Daniel Tosh'
p2171
I18
sS'Misty Copeland'
p2172
I74
sS'Bob Ross'
p2173
I17
sS'End Flint'
p2174
I1
sS'To Running'
p2175
I2
sS'Beer World'
p2176
I1
sS'Todd Bowles'
p2177
I6
sS'See Adele'
p2178
I4
sS'Hall Will'
p2179
I1
sS'Julius Randle'
p2180
I1
sS'Big Homes'
p2181
I56
sS'Bruce Hyde'
p2182
I4
sS'Police Killings'
p2183
I3
sS'Joan Leslie'
p2184
I40
sS'From Southern'
p2185
I1
sS'Boots Alliance'
p2186
I4
sS'Trump Speaks'
p2187
I1
sS'Theodore Roosevelt'
p2188
I3
sS'Clay Helton'
p2189
I3
sS'Rio Pares'
p2190
I6
sS'Dollar Market'
p2191
I24
sS'Madison Square'
p2192
I9
sS'Ryan Mallett'
p2193
I4
sS'Most Black'
p2194
I1
sS'Perry Hills'
p2195
I3
sS'Mountain House'
p2196
I17
sS'Stakes Rise'
p2197
I2
sS'San Diego'
p2198
I66
sS'Frankie Hughes'
p2199
I1
sS'Oscar Munoz'
p2200
I3
sS'Swiss Re'
p2201
I1
sS'But Do'
p2202
I4
sS'How Jack'
p2203
I1
sS'Left Child'
p2204
I1
sS'Green Hair'
p2205
I16
sS'Big December'
p2206
I2
sS'Shows Africa'
p2207
I20
sS'Baltimore Ravens'
p2208
I6
sS'Records From'
p2209
I1
sS'Be Hard'
p2210
I2
sS'Off Fake'
p2211
I1
sS'Silver Lake'
p2212
I1
sS'Rise Off'
p2213
I1
sS'How Pebbles'
p2214
I2
sS'Mike Nichols'
p2215
I11
sS'World War'
p2216
I62
sS'Red Wagon'
p2217
I1
sS'Emily Blunt'
p2218
I5
sS'Michael Jordan'
p2219
I27
sS'French Police'
p2220
I41
sS'Freddie Gray'
p2221
I17
sS'Single Off'
p2222
I1
sS'First Red'
p2223
I8
sS'Arab Areas'
p2224
I10
sS'To In'
p2225
I1
sS'Stops Nadal'
p2226
I1
sS'Court Hearing'
p2227
I1
sS'Ice Age'
p2228
I12
sS'Gun Bill'
p2229
I13
sS'Me Like'
p2230
I36
sS'Arlington Board'
p2231
I4
sS'Nurse Held'
p2232
I2
sS'Town Lake'
p2233
I1
sS'Like Daniel'
p2234
I7
sS'William Bring'
p2235
I2
sS'Him Well'
p2236
I4
sS'Washington State'
p2237
I25
sS'Pat Robertson'
p2238
I16
sS'Steve Spurrier'
p2239
I1
sS'Edge Lower'
p2240
I21
sS'Foster Care'
p2241
I6
sS'Heads Back'
p2242
I1
sS'Can Rise'
p2243
I40
sS'Mini Bautista'
p2244
I3
sS'Early On'
p2245
I18
sS'Boards Go'
p2246
I4
sS'Fear Bernie'
p2247
I12
sS'Hurt Hillary'
p2248
I1
sS'Win Credit'
p2249
I29
sS'Coast President'
p2250
I12
sS'Berry Files'
p2251
I2
sS'Morning Sports'
p2252
I1
sS'David Krejci'
p2253
I1
sS'May Hand'
p2254
I1
sS'Mohamed Will'
p2255
I4
sS'Walking In'
p2256
I1
sS'Menzel Sing'
p2257
I1
sS'Cesar Chavez'
p2258
I2
sS'Ricard Sales'
p2259
I7
sS'Staten Island'
p2260
I124
sS'Carey Mulligan'
p2261
I78
sS'From Space'
p2262
I7
sS'Brad Pitt'
p2263
I10
sS'Jim Zorn'
p2264
I2
sS'Blind Eye'
p2265
I17
sS'State You'
p2266
I4
sS'Been Wider'
p2267
I10
sS'Startup Square'
p2268
I20
sS'Key Moment'
p2269
I13
sS'Step Down'
p2270
I48
sS'Red Light'
p2271
I24
sS'Sample Trial'
p2272
I1
sS'Marie Kondo'
p2273
I2
sS'Surprise Landing'
p2274
I1
sS'Roger Mathews'
p2275
I6
sS'Store Credit'
p2276
I4
sS'From Hillary'
p2277
I4
sS'Steve Wozniak'
p2278
I2
sS'Street Band'
p2279
I3
sS'Weather Channel'
p2280
I55
sS'Delaware Dominion'
p2281
I38
sS'To Bring'
p2282
I1
sS'Winfrey Rides'
p2283
I16
sS'Sachs Lowers'
p2284
I1
sS'Ronda Rousey'
p2285
I136
sS'Little Charm'
p2286
I6
sS'Banks Offer'
p2287
I21
sS'Worth Reading'
p2288
I1
sS'Teddy Roosevelt'
p2289
I3
sS'Scott Walker'
p2290
I6
sS'Free Soda'
p2291
I2
sS'Fuel Apple'
p2292
I20
sS'Floyd Cook'
p2293
I1
sS'To Beat'
p2294
I1
sS'Sales Fuel'
p2295
I20
sS'Pat Haden'
p2296
I7
sS'Needs No'
p2297
I1
sS'Sloan Kettering'
p2298
I17
sS'Good Call'
p2299
I2
sS'Must Double'
p2300
I1
sS'Takes Stake'
p2301
I1
sS'Little League'
p2302
I21
sS'New Job'
p2303
I3
sS'Roger Lowenstein'
p2304
I51
sS'Long Island'
p2305
I43
sS'Chelsea Stars'
p2306
I4
sS'Eve Hewson'
p2307
I2
sS'Northern Ireland'
p2308
I4
sS'Wider Pool'
p2309
I2
sS'Mom Gave'
p2310
I74
sS'Landmark Metro'
p2311
I2
sS'Police Seen'
p2312
I2
sS'Police Seek'
p2313
I8
sS'Gabe Kapler'
p2314
I3
sS'Morris Lie'
p2315
I5
sS'Grande Wears'
p2316
I1
sS'Battle Over'
p2317
I10
sS'House From'
p2318
I50
sS'Kelly Groh'
p2319
I1
sS'Lucky Lady'
p2320
I1
sS'Huey Lewis'
p2321
I2
sS'Ice Gain'
p2322
I2
sS'Over Hillary'
p2323
I7
sS'Can Fix'
p2324
I3
sS'New Books'
p2325
I2
sS'Cameron Wake'
p2326
I4
sS'Chris Stapleton'
p2327
I26
sS'Sell Tower'
p2328
I9
sS'Mail App'
p2329
I3
sS'Barrett Back'
p2330
I3
sS'Hurt Him'
p2331
I12
sS'Jews Than'
p2332
I6
sS'Dennis Hof'
p2333
I2
sS'My Dad'
p2334
I1
sS'Spike Lee'
p2335
I4
sS'Ben Watson'
p2336
I1
sS'Lambert Rocks'
p2337
I1
sS'Say Common'
p2338
I1
sS'Do Right'
p2339
I3
sS'Say Mom'
p2340
I4
sS'Over Apple'
p2341
I87
sS'Figures Show'
p2342
I2
sS'Jim Hackett'
p2343
I3
sS'West Has'
p2344
I1
sS'Surprise Drop'
p2345
I2
sS'Sharp Fall'
p2346
I3
sS'William Ackman'
p2347
I2
sS'Steel Mill'
p2348
I4
sS'Part Well'
p2349
I5
sS'Million Stake'
p2350
I2
sS'Job Even'
p2351
I1
sS'See Donald'
p2352
I1
sS'Bing Bong'
p2353
I3
sS'Terp Torrey'
p2354
I1
sS'Fox Sports'
p2355
I12
sS'English Home'
p2356
I16
sS'Christian Wiman'
p2357
I2
sS'Jeff Jacobson'
p2358
I1
sS'Kong Stocks'
p2359
I10
sS'Big Even'
p2360
I1
sS'Anger Over'
p2361
I69
sS'Say Sanders'
p2362
I24
sS'James Harden'
p2363
I9
sS'Manner Has'
p2364
I13
sS'Seals Border'
p2365
I27
sS'Howard Kendall'
p2366
I2
sS'Nobel Peace'
p2367
I13
sS'Turns Over'
p2368
I22
sS'Why Dell'
p2369
I1
sS'Chris Culliver'
p2370
I1
sS'May Hurt'
p2371
I2
sS'Money Race'
p2372
I24
sS'Talent Judge'
p2373
I2
sS'In Plain'
p2374
I3
sS'Arab States'
p2375
I2
sS'New Prime'
p2376
I22
sS'China Home'
p2377
I1
sS'Florida Beach'
p2378
I1
sS'Travis Scott'
p2379
I1
sS'Magic Leap'
p2380
I4
sS'Rex Ryan'
p2381
I7
sS'Towels Wave'
p2382
I6
sS'Brooklyn Stage'
p2383
I1
sS'Bank Power'
p2384
I9
sS'Ship Sails'
p2385
I8
sS'Florida Officer'
p2386
I2
sS'South American'
p2387
I1
sS'American Fabian'
p2388
I1
sS'Claus Save'
p2389
I1
sS'Do Come'
p2390
I4
sS'Right Has'
p2391
I3
sS'Kennedy Center'
p2392
I83
sS'Rough Patch'
p2393
I3
sS'Jordan Spieth'
p2394
I2
sS'End Key'
p2395
I11
sS'Hubble Sees'
p2396
I6
sS'In Just'
p2397
I1
sS'Schumer Will'
p2398
I2
sS'Keith Haring'
p2399
I1
sS'Stephen King'
p2400
I15
sS'He Just'
p2401
I1
sS'Maryland State'
p2402
I1
sS'Michael Conforto'
p2403
I2
sS'Ryan Murphy'
p2404
I2
sS'How Clinton'
p2405
I2
sS'More Plants'
p2406
I6
sS'Rocky Market'
p2407
I1
sS'Latin American'
p2408
I5
sS'Be Like'
p2409
I2
sS'Record Storm'
p2410
I15
sS'Apple Stores'
p2411
I1
sS'Michael Moore'
p2412
I2
sS'Job Torey'
p2413
I3
sS'Stock Sinks'
p2414
I10
sS'State Will'
p2415
I1
sS'Season Ends'
p2416
I23
sS'Post Drew'
p2417
I1
sS'Daily Show'
p2418
I5
sS'Takes Page'
p2419
I1
sS'See Risk'
p2420
I8
sS'Chris Rock'
p2421
I59
sS'To Treat'
p2422
I15
sS'Second Child'
p2423
I1
sS'Study Links'
p2424
I5
sS'Big City'
p2425
I36
sS'Sidwell Friends'
p2426
I2
sS'Darrel Young'
p2427
I2
sS'John Lennon'
p2428
I3
sS'Daily Life'
p2429
I46
sS'So Fast'
p2430
I2
sS'David Cameron'
p2431
I60
sS'My Credit'
p2432
I1
sS'Russell Simmons'
p2433
I16
sS'In Age'
p2434
I4
sS'Ed Lee'
p2435
I4
sS'Chamber Speaks'
p2436
I1
sS'Ryan Goins'
p2437
I1
sS'Economy Shows'
p2438
I1
sS'Florin High'
p2439
I1
sS'Pain But'
p2440
I2
sS'Rain Falls'
p2441
I1
sS'Brain From'
p2442
I1
sS'New York'
p2443
I1141
sS'Marine Pilot'
p2444
I1
sS'Royals Win'
p2445
I40
sS'Karen Winter'
p2446
I1
sS'In Argentina'
p2447
I4
sS'Pat Woodell'
p2448
I31
sS'Kate Murphy'
p2449
I1
sS'Her Broadway'
p2450
I69
sS'Richard Branson'
p2451
I3
sS'Public Battle'
p2452
I9
sS'Rob Manfred'
p2453
I1
sS'Man March'
p2454
I11
sS'Red Bulls'
p2455
I6
sS'Worker Found'
p2456
I1
sS'Season Will'
p2457
I1
sS'Daniel Murphy'
p2458
I118
sS'Low Price'
p2459
I2
sS'Emily Haines'
p2460
I1
sS'Boston Bruins'
p2461
I2
sS'Luther Adams'
p2462
I10
sS'Iesha Kenney'
p2463
I1
sS'Rubio Comes'
p2464
I2
sS'Super Spieth'
p2465
I1
sS'Trumps Reading'
p2466
I1
sS'Winter Weather'
p2467
I2
sS'Why Donald'
p2468
I13
sS'Union Pacific'
p2469
I5
sS'Danny Meyer'
p2470
I34
sS'Water Leak'
p2471
I5
sS'Vernon Place'
p2472
I2
sS'Jon Jones'
p2473
I8
sS'Justin Turner'
p2474
I9
sS'Kate Lanphear'
p2475
I20
sS'Found Off'
p2476
I6
sS'Harlem Led'
p2477
I2
sS'Harvey Shows'
p2478
I6
sS'Andrew Hunter'
p2479
I1
sS'Call Marco'
p2480
I45
sS'Her Than'
p2481
I1
sS'Hudson Valley'
p2482
I10
sS'Fresh Voice'
p2483
I1
sS'Lower Profit'
p2484
I2
sS'Found In'
p2485
I7
sS'Bottom Line'
p2486
I26
sS'Speaker Hastert'
p2487
I14
sS'Anthony Davis'
p2488
I11
sS'Us All'
p2489
I1
sS'Tommy Hilfiger'
p2490
I9
sS'May Sell'
p2491
I17
sS'Her Life'
p2492
I1
sS'Many Schools'
p2493
I16
sS'Test Drone'
p2494
I2
sS'Tennessee State'
p2495
I47
sS'Cure Writer'
p2496
I1
sS'Ernie Kent'
p2497
I1
sS'From Carson'
p2498
I5
sS'Philip Rivers'
p2499
I3
sS'Bars Sick'
p2500
I3
sS'While Other'
p2501
I3
sS'Cancel My'
p2502
I1
sS'Channel Deal'
p2503
I3
sS'Reading Bible'
p2504
I49
sS'How Good'
p2505
I2
sS'David West'
p2506
I20
sS'Friends Will'
p2507
I1
sS'Turtle Found'
p2508
I1
sS'Jose Bautista'
p2509
I12
sS'Mary Jo'
p2510
I3
sS'Sheriff Deputy'
p2511
I1
sS'Jason Collins'
p2512
I1
sS'Lake Erie'
p2513
I30
sS'Wells Fargo'
p2514
I72
sS'Cory Wells'
p2515
I5
sS'Revis Island'
p2516
I1
sS'Profit View'
p2517
I1
sS'Western States'
p2518
I2
sS'In Los'
p2519
I1
sS'Much Rather'
p2520
I2
sS'French Banks'
p2521
I9
sS'Fall Box'
p2522
I1
sS'Lands On'
p2523
I4
sS'Brooks Ayers'
p2524
I2
sS'Drop Donald'
p2525
I20
sS'High Home'
p2526
I41
sS'Distance From'
p2527
I1
sS'Offer Case'
p2528
I9
sS'Whisenhunt Takes'
p2529
I18
sS'He Has'
p2530
I46
sS'Why No'
p2531
I2
sS'Michael Connelly'
p2532
I15
sS'Poor Cancer'
p2533
I1
sS'Chris Mintz'
p2534
I29
sS'Frank Kearse'
p2535
I1
sS'Fargo Deal'
p2536
I15
sS'Hunger Games'
p2537
I10
sS'Hails Vote'
p2538
I4
sS'Steven Hill'
p2539
I20
sS'Life On'
p2540
I4
sS'Fallon Her'
p2541
I1
sS'Effie Brown'
p2542
I1
sS'Warner On'
p2543
I4
sS'Simon Winchester'
p2544
I29
sS'More You'
p2545
I20
sS'Sean Gregory'
p2546
I286
sS'Alliance Last'
p2547
I21
sS'Prince Charles'
p2548
I10
sS'Can Santa'
p2549
I1
sS'Free Uber'
p2550
I3
sS'Mark Bittman'
p2551
I2
sS'South Sea'
p2552
I6
sS'New Home'
p2553
I194
sS'College Try'
p2554
I7
sS'Yum Brands'
p2555
I5
sS'Haslam Buys'
p2556
I12
sS'Miss Coach'
p2557
I2
sS'Los Angeles'
p2558
I232
sS'Mark Thompson'
p2559
I3
sS'On In'
p2560
I4
sS'Ashton Carter'
p2561
I2
sS'Can Win'
p2562
I1
sS'Ring Said'
p2563
I1
sS'Fisher Turns'
p2564
I1
sS'Donte Whitner'
p2565
I1
sS'He Won'
p2566
I1
sS'Lakin Dies'
p2567
I1
sS'Red Roses'
p2568
I169
sS'Matt Ryan'
p2569
I1
sS'Palm Beach'
p2570
I2
sS'Paul Rhoads'
p2571
I1
sS'Her Other'
p2572
I5
sS'Why Dennis'
p2573
I1
sS'Beer Ice'
p2574
I1
sS'Why Houston'
p2575
I4
sS'Fear Most'
p2576
I70
sS'Mayor Boris'
p2577
I1
sS'See Pope'
p2578
I1
sS'Sees Signs'
p2579
I25
sS'Hang On'
p2580
I8
sS'Like Less'
p2581
I1
sS'Over Him'
p2582
I69
sS'Bonds Start'
p2583
I2
sS'Learn How'
p2584
I74
sS'Erika Karen'
p2585
I1
sS'Old Mill'
p2586
I2
sS'Us How'
p2587
I9
sS'Lemon Face'
p2588
I8
sS'How Race'
p2589
I1
sS'Philip Moeller'
p2590
I3
sS'War Crimes'
p2591
I4
sS'Ryan Takes'
p2592
I21
sS'Sales Grow'
p2593
I3
sS'Bill Morneau'
p2594
I1
sS'Million Times'
p2595
I1
sS'Matt Ridley'
p2596
I61
sS'Baltimore Police'
p2597
I12
sS'Lamar Alexander'
p2598
I67
sS'Malcolm Brogdon'
p2599
I2
sS'Like New'
p2600
I2
sS'Seller Dials'
p2601
I6
sS'Ask Congress'
p2602
I1
sS'Suit From'
p2603
I3
sS'Assad Said'
p2604
I4
sS'May Stay'
p2605
I1
sS'Startup Will'
p2606
I22
sS'Jared Goff'
p2607
I7
sS'Kelly Oubre'
p2608
I17
sS'Aid Worker'
p2609
I5
sS'Just So'
p2610
I4
sS'Hank Henshaw'
p2611
I3
sS'Jay Cutler'
p2612
I1
sS'Off Canada'
p2613
I3
sS'Star Abby'
p2614
I9
sS'Can Gold'
p2615
I3
sS'James Bible'
p2616
I55
sS'Train Hero'
p2617
I4
sS'Last Seen'
p2618
I3
sS'Royals Pitcher'
p2619
I1
sS'Abby Wambach'
p2620
I21
sS'To Reach'
p2621
I32
sS'In America'
p2622
I3
sS'Fake Cover'
p2623
I5
sS'Steven Spielberg'
p2624
I65
sS'Awkward Choice'
p2625
I1
sS'Sally Field'
p2626
I5
sS'Even Love'
p2627
I4
sS'In Victoria'
p2628
I1
sS'Schools Do'
p2629
I5
sS'Police Begin'
p2630
I11
sS'More Than'
p2631
I233
sS'People In'
p2632
I2
sS'Small London'
p2633
I11
sS'York Sue'
p2634
I5
sS'Del Monte'
p2635
I1
sS'Stars Read'
p2636
I2
sS'State Parks'
p2637
I1
sS'Miley Cyrus'
p2638
I5
sS'Takes Fresh'
p2639
I5
sS'Friend Pay'
p2640
I1
sS'From Race'
p2641
I1
sS'American Eagle'
p2642
I1
sS'Chi Chin'
p2643
I9
sS'German Minister'
p2644
I28
sS'China Waters'
p2645
I12
sS'To Slain'
p2646
I1
sS'Handler Over'
p2647
I45
sS'Sugar From'
p2648
I1
sS'Net Profit'
p2649
I23
sS'To Screen'
p2650
I3
sS'Lower Home'
p2651
I23
sS'New Car'
p2652
I13
sS'Ryan Reynolds'
p2653
I28
sS'Syria Gamble'
p2654
I3
sS'You Want'
p2655
I149
sS'New Push'
p2656
I21
sS'Floyd Ray'
p2657
I9
sS'Dell Deal'
p2658
I59
sS'Max Greenfield'
p2659
I5
sS'Russell Westbrook'
p2660
I4
sS'Muslim State'
p2661
I19
sS'Street Bulls'
p2662
I3
sS'Down Drone'
p2663
I12
sS'Philip Chism'
p2664
I1
sS'Dollar Steady'
p2665
I3
sS'Trader Found'
p2666
I18
sS'Assad Must'
p2667
I4
sS'Why So'
p2668
I1
sS'Can Learn'
p2669
I2
sS'Abbott Labs'
p2670
I2
sS'Cameron Diaz'
p2671
I20
sS'Fix Puerto'
p2672
I19
sS'Columbia Coast'
p2673
I1
sS'Stole From'
p2674
I5
sS'Gordon Takes'
p2675
I1
sS'Takes Flight'
p2676
I17
sS'Reese Witherspoon'
p2677
I10
sS'Due Dates'
p2678
I4
sS'To Fall'
p2679
I3
sS'Why Angry'
p2680
I2
sS'San Francisco'
p2681
I341
sS'Blake Shelton'
p2682
I22
sS'Favorite Stump'
p2683
I1
sS'Steven Brill'
p2684
I6
sS'Page From'
p2685
I22
sS'New Public'
p2686
I4
sS'Ed Walker'
p2687
I1
sS'Biel During'
p2688
I6
sS'Over Donald'
p2689
I1
sS'On Justice'
p2690
I1
sS'Carrie Fisher'
p2691
I30
sS'Edith Has'
p2692
I2
sS'Rolling In'
p2693
I1
sS'Come Winter'
p2694
I69
sS'Black Leader'
p2695
I5
sS'Cover Bad'
p2696
I3
sS'Brooklyn Band'
p2697
I12
sS'Truly Takes'
p2698
I1
sS'Party Credit'
p2699
I6
sS'Million Dollar'
p2700
I24
sS'Kevin Costner'
p2701
I24
sS'Matter More'
p2702
I1
sS'Duty Just'
p2703
I3
sS'Number Shows'
p2704
I3
sS'More Points'
p2705
I25
sS'West Bank'
p2706
I107
sS'New Race'
p2707
I1
sS'Over Lack'
p2708
I4
sS'Aid Plan'
p2709
I24
sS'Jennifer Lawrence'
p2710
I109
sS'West Africa'
p2711
I5
sS'Miles College'
p2712
I1
sS'Stars Found'
p2713
I20
sS'China Signs'
p2714
I2
sS'Killer Be'
p2715
I6
sS'Norway Has'
p2716
I11
sS'To Pick'
p2717
I1
sS'From Her'
p2718
I51
sS'Shows China'
p2719
I1
sS'More Carson'
p2720
I1
sS'Reasons People'
p2721
I20
sS'Born Weeks'
p2722
I3
sS'From Key'
p2723
I1
sS'Market Chill'
p2724
I8
sS'Sales Rose'
p2725
I6
sS'House Ways'
p2726
I1
sS'Ryan White'
p2727
I23
sS'Rode In'
p2728
I6
sS'Tiffany Can'
p2729
I23
sS'Anna Stubblefield'
p2730
I70
sS'Never Going'
p2731
I1
sS'So Over'
p2732
I3
sS'To You'
p2733
I5
sS'Wedding Last'
p2734
I1
sS'Can Rubio'
p2735
I20
sS'Can Wait'
p2736
I1
sS'Lights On'
p2737
I9
sS'Pay Back'
p2738
I3
sS'Glenn Frey'
p2739
I19
sS'Never Worn'
p2740
I8
sS'Deal Pope'
p2741
I17
sS'To Form'
p2742
I1
sS'Kurt Busch'
p2743
I4
sS'Alanis Morissette'
p2744
I4
sS'Gold Gains'
p2745
I1
sS'Sparks Fly'
p2746
I30
sS'Long Day'
p2747
I2
sS'Sales Gains'
p2748
I10
sS'Gay Men'
p2749
I9
sS'Fort Collins'
p2750
I1
sS'Harden Never'
p2751
I2
sS'How He'
p2752
I5
sS'Ship Found'
p2753
I43
sS'Seen From'
p2754
I2
sS'Crown No'
p2755
I17
sS'From Royals'
p2756
I28
sS'Speaker Ryan'
p2757
I23
sS'Carson Catching'
p2758
I4
sS'Bank Lowers'
p2759
I2
sS'May Soon'
p2760
I23
sS'Otto Porter'
p2761
I1
sS'Walk Fine'
p2762
I3
sS'Kyle Allen'
p2763
I1
sS'Carey Price'
p2764
I1
sS'Most States'
p2765
I18
sS'Bear Stroll'
p2766
I46
sS'Cate Blanchett'
p2767
I2
sS'Her Jewels'
p2768
I2
sS'Sandy Beach'
p2769
I24
sS'Stan Lee'
p2770
I36
sS'New Plan'
p2771
I1
sS'Wider Loss'
p2772
I1
sS'Westfield Mall'
p2773
I5
sS'May Be'
p2774
I165
sS'Ivy Taylor'
p2775
I2
sS'Last Power'
p2776
I6
sS'Trump Talk'
p2777
I1
sS'Fine Takata'
p2778
I9
sS'Stocks Jump'
p2779
I3
sS'First Sanders'
p2780
I4
sS'Mercedes Sales'
p2781
I3
sS'Jon Hamm'
p2782
I52
sS'Glad Hollywood'
p2783
I2
sS'Silver Trial'
p2784
I29
sS'Russian Economy'
p2785
I1
sS'Record Profit'
p2786
I8
sS'Christmas Miracle'
p2787
I3
sS'Andy Dalton'
p2788
I1
sS'Will Seek'
p2789
I13
sS'Test To'
p2790
I1
sS'Be So'
p2791
I2
sS'Money Men'
p2792
I1
sS'Trial During'
p2793
I106
sS'James Sing'
p2794
I68
sS'In Stores'
p2795
I1
sS'Long Shadow'
p2796
I24
sS'Sovereign Nations'
p2797
I78
sS'Grief Has'
p2798
I16
sS'So Can'
p2799
I1
sS'Uber Age'
p2800
I17
sS'Given Home'
p2801
I3
sS'Pink Hair'
p2802
I17
sS'In Favor'
p2803
I1
sS'Copper Falls'
p2804
I3
sS'Wind Farm'
p2805
I3
sS'Be Victoria'
p2806
I1
sS'Officer Ben'
p2807
I4
sS'Cruz Has'
p2808
I7
sS'Hampshire Poll'
p2809
I3
sS'Takes Early'
p2810
I1
sS'Sharp Rise'
p2811
I10
sS'Vaughn Jones'
p2812
I2
sS'Million More'
p2813
I1
sS'Panda Cam'
p2814
I118
sS'Down In'
p2815
I1
sS'Lions In'
p2816
I1
sS'Dupont Circle'
p2817
I1
sS'Water Levels'
p2818
I2
sS'Europe Face'
p2819
I1
sS'Pat Fitzgerald'
p2820
I1
sS'Brooklyn Navy'
p2821
I104
sS'Files Reveal'
p2822
I3
sS'Paxton Lynch'
p2823
I1
sS'May Fly'
p2824
I8
sS'Why You'
p2825
I137
sS'Diesel Read'
p2826
I94
sS'Luck Book'
p2827
I19
sS'So Many'
p2828
I2
sS'Why Matt'
p2829
I2
sS'First Single'
p2830
I4
sS'Fire Danger'
p2831
I1
sS'Sea Power'
p2832
I2
sS'Cover Drake'
p2833
I2
sS'Sheldon Silver'
p2834
I56
sS'Seeds First'
p2835
I5
sS'Peter Dougherty'
p2836
I39
sS'Will Gay'
p2837
I1
sS'How Do'
p2838
I151
sS'From My'
p2839
I1
sS'Ranch Deal'
p2840
I21
sS'Bombardier Still'
p2841
I61
sS'Rashad Jennings'
p2842
I3
sS'Major Gains'
p2843
I2
sS'Stephen Harper'
p2844
I6
sS'Lee Miller'
p2845
I12
sS'John Giorno'
p2846
I2
sS'Alice Park'
p2847
I235
sS'Short Fuse'
p2848
I1
sS'Baltimore City'
p2849
I10
sS'Wilson Bridge'
p2850
I2
sS'Wright Brothers'
p2851
I1
sS'Liana Vines'
p2852
I2
sS'Robert Griffin'
p2853
I29
sS'But Still'
p2854
I4
sS'Drew Police'
p2855
I5
sS'Loss But'
p2856
I3
sS'Why Ben'
p2857
I18
sS'Stock Falls'
p2858
I1
sS'Just Like'
p2859
I2
sS'To Lose'
p2860
I2
sS'Odom Off'
p2861
I1
sS'But Cloud'
p2862
I1
sS'Big Banks'
p2863
I72
sS'Jacques Pepin'
p2864
I19
sS'Jeanne Shaheen'
p2865
I106
sS'Like Gwen'
p2866
I1
sS'Pierre Garcon'
p2867
I4
sS'Reveal Body'
p2868
I4
sS'John Koskinen'
p2869
I1
sS'Veto Powers'
p2870
I1
sS'Brooklyn Man'
p2871
I1
sS'But Carson'
p2872
I1
sS'Black Man'
p2873
I4
sS'Tim Cook'
p2874
I95
sS'More Black'
p2875
I1
sS'Bill Sales'
p2876
I7
sS'To Tell'
p2877
I9
sS'Carson Gain'
p2878
I1
sS'Both Shows'
p2879
I17
sS'Walter Gerken'
p2880
I22
sS'Means To'
p2881
I75
sS'Edward Snowden'
p2882
I9
sS'Sacramento Mayor'
p2883
I5
sS'Crystal Ball'
p2884
I9
sS'Jack Dorsey'
p2885
I68
sS'In Honor'
p2886
I3
sS'Prime Music'
p2887
I2
sS'Nice Life'
p2888
I28
sS'May Come'
p2889
I1
sS'Her Long'
p2890
I13
sS'Jersey Shore'
p2891
I13
sS'Will Come'
p2892
I5
sS'Margaret Thatcher'
p2893
I6
sS'Bring Warm'
p2894
I1
sS'Show Off'
p2895
I92
sS'Kardashian Goes'
p2896
I1
sS'New Strength'
p2897
I3
sS'Love Child'
p2898
I2
sS'Morgan Case'
p2899
I11
sS'Olivia Newton'
p2900
I5
sS'Parcel Race'
p2901
I8
sS'Profit Takes'
p2902
I3
sS'Osbourn Park'
p2903
I1
sS'Will Sue'
p2904
I2
sS'Jeong Kwan'
p2905
I9
sS'War Setting'
p2906
I24
sS'Line From'
p2907
I7
sS'New Music'
p2908
I11
sS'Spanish Police'
p2909
I7
sS'In Bud'
p2910
I1
sS'Freed From'
p2911
I3
sS'True Cost'
p2912
I6
sS'Billy Bob'
p2913
I2
sS'Mayor Emanuel'
p2914
I3
sS'Holmes Speaks'
p2915
I4
sS'Alter Party'
p2916
I17
sS'Study Shows'
p2917
I18
sS'Mike Myers'
p2918
I2
sS'Sanders Has'
p2919
I3
sS'Army May'
p2920
I23
sS'Over Border'
p2921
I9
sS'Stocks Can'
p2922
I2
sS'Europe Buys'
p2923
I9
sS'Chris Kelly'
p2924
I7
sS'Chandler Jones'
p2925
I1
sS'Trumps Faith'
p2926
I8
sS'Fannie Mae'
p2927
I4
sS'Ben Ginsberg'
p2928
I9
sS'Frieze Kicks'
p2929
I6
sS'From Cuba'
p2930
I1
sS'First Place'
p2931
I5
sS'Record Straight'
p2932
I24
sS'Young People'
p2933
I4
sS'Trudeau Will'
p2934
I2
sS'Hand Pope'
p2935
I21
sS'Don Draper'
p2936
I51
sS'Big Number'
p2937
I27
sS'My Little'
p2938
I13
sS'Familia Church'
p2939
I1
sS'Sells Off'
p2940
I1
sS'Jones Said'
p2941
I5
sS'Cheese Kid'
p2942
I81
sS'Counter North'
p2943
I2
sS'New Credit'
p2944
I1
sS'Small Balls'
p2945
I2
sS'Say Clinton'
p2946
I24
sS'On Sloan'
p2947
I17
sS'Takes Bryan'
p2948
I1
sS'Rode Tea'
p2949
I6
sS'Bleecker Street'
p2950
I10
sS'To All'
p2951
I5
sS'Sloane Crosley'
p2952
I22
sS'Getting Rich'
p2953
I21
sS'Fire On'
p2954
I2
sS'Love Denmark'
p2955
I1
sS'Tell Us'
p2956
I17
sS'China Will'
p2957
I2
sS'Bustle On'
p2958
I17
sS'Donna Karan'
p2959
I1
sS'Over Russian'
p2960
I19
sS'Net Ice'
p2961
I2
sS'High Fees'
p2962
I7
sS'Hurt Them'
p2963
I2
sS'Tea Party'
p2964
I19
sS'Ruth Bader'
p2965
I30
sS'You May'
p2966
I28
sS'Has Just'
p2967
I2
sS'Bertie Ahern'
p2968
I1
sS'Fears Rise'
p2969
I1
sS'Bay Bridge'
p2970
I3
sS'Canada New'
p2971
I10
sS'Fred Jackson'
p2972
I4
sS'Bigger Than'
p2973
I25
sS'State Keep'
p2974
I1
sS'Early Works'
p2975
I1
sS'Tyler Johnson'
p2976
I1
sS'School Officer'
p2977
I1
sS'Rubio Moment'
p2978
I13
sS'Janice Dickinson'
p2979
I2
sS'Other Stocks'
p2980
I42
sS'Key Syria'
p2981
I4
sS'Super Bowl'
p2982
I4
sS'Israel Bars'
p2983
I8
sS'From China'
p2984
I14
sS'Andy Warhol'
p2985
I2
sS'Simple Ways'
p2986
I1
sS'See How'
p2987
I232
sS'Torrey Smith'
p2988
I2
sS'On Campus'
p2989
I4
sS'Why Danny'
p2990
I1
sS'Her Dark'
p2991
I2
sS'Rolling Carbon'
p2992
I2
sS'China Needs'
p2993
I2
sS'Sales Miss'
p2994
I10
sS'Ends Model'
p2995
I1
sS'Games Topping'
p2996
I1
sS'East Hollywood'
p2997
I4
sS'Gail Collins'
p2998
I116
sS'Stars Back'
p2999
I1
sS'Alber Elbaz'
p3000
I61
sS'On Money'
p3001
I24
sS'Money Can'
p3002
I16
sS'Favorite Bible'
p3003
I80
sS'Ted Hefter'
p3004
I2
sS'Stock Lower'
p3005
I29
sS'How Donald'
p3006
I49
sS'Over Adele'
p3007
I101
sS'Margaret Cho'
p3008
I18
sS'City Banks'
p3009
I6
sS'Huge Spike'
p3010
I1
sS'Water School'
p3011
I20
sS'Shows No'
p3012
I18
sS'Mean Weight'
p3013
I1
sS'Face Off'
p3014
I3
sS'You Back'
p3015
I1
sS'Clinton Tell'
p3016
I3
sS'Stars Martin'
p3017
I13
sS'Kaci Hickox'
p3018
I4
sS'Dwayne Harris'
p3019
I18
sS'Getting Smaller'
p3020
I7
sS'New Plant'
p3021
I2
sS'Craig Sager'
p3022
I3
sS'Trudeau Victory'
p3023
I2
sS'Parents Found'
p3024
I1
sS'Port Deal'
p3025
I21
sS'Kim Richards'
p3026
I5
sS'Richard Nixon'
p3027
I9
sS'Wins Staten'
p3028
I3
sS'Sum House'
p3029
I2
sS'Surprise From'
p3030
I226
sS'Danger In'
p3031
I2
sS'First Read'
p3032
I5
sS'Rubio Won'
p3033
I8
sS'Graham Gano'
p3034
I1
sS'Oscar Mayer'
p3035
I7
sS'Dad Joe'
p3036
I2
sS'Kevin Towers'
p3037
I1
sS'Good Hands'
p3038
I1
sS'House Near'
p3039
I7
sS'Scott Van'
p3040
I2
sS'End To'
p3041
I2
sS'Martha Poulter'
p3042
I65
sS'Chris Brown'
p3043
I4
sS'Can Beat'
p3044
I1
sS'May Harm'
p3045
I2
sS'In West'
p3046
I1
sS'Island Hamlet'
p3047
I1
sS'Falls Ill'
p3048
I1
sS'Ask Amy'
p3049
I2
sS'Goodyear Profit'
p3050
I1
sS'Flaming Lips'
p3051
I3
sS'Driver Susie'
p3052
I4
sS'Norfolk Southern'
p3053
I5
sS'Comes In'
p3054
I2
sS'City Condo'
p3055
I1
sS'Young Nephew'
p3056
I35
sS'No Nation'
p3057
I169
sS'Mini Pope'
p3058
I1
sS'Will Linger'
p3059
I3
sS'Done Better'
p3060
I7
sS'Thomas Stone'
p3061
I1
sS'Public Kiss'
p3062
I5
sS'Rumble Over'
p3063
I19
sS'Ruby Rose'
p3064
I26
sS'Media During'
p3065
I1
sS'Be Old'
p3066
I1
sS'American Gun'
p3067
I2
sS'Rich Nations'
p3068
I15
sS'Party Wins'
p3069
I39
sS'First Large'
p3070
I27
sS'Syria Over'
p3071
I15
sS'Carolina Shore'
p3072
I1
sS'No Duh'
p3073
I1
sS'Stock Gains'
p3074
I2
sS'To Post'
p3075
I2
sS'Adam Scott'
p3076
I1
sS'All Her'
p3077
I41
sS'Marco Moment'
p3078
I3
sS'How Congress'
p3079
I3
sS'Story Line'
p3080
I6
sS'Hire Broadway'
p3081
I5
sS'How Patricia'
p3082
I8
sS'Last Won'
p3083
I12
sS'Saunders Dies'
p3084
I5
sS'Brandon Marshall'
p3085
I6
sS'Henry Krystal'
p3086
I104
sS'Sergio Trujillo'
p3087
I15
sS'Beat Back'
p3088
I1
sS'Craig Still'
p3089
I6
sS'Austin Rivers'
p3090
I13
sS'Bush Hopes'
p3091
I1
sS'See David'
p3092
I72
sS'Timothy Egan'
p3093
I3
sS'Wild Bear'
p3094
I2
sS'Austria To'
p3095
I1
sS'Takes Top'
p3096
I3
sS'See New'
p3097
I10
sS'In Huge'
p3098
I1
sS'You Walk'
p3099
I32
sS'East Coast'
p3100
I20
sS'Gold Bulls'
p3101
I7
sS'Phil Lesh'
p3102
I54
sS'Lover Heads'
p3103
I1
sS'Geraldine Brooks'
p3104
I10
sS'Pine Cone'
p3105
I30
sS'Will Grier'
p3106
I1
sS'Record Low'
p3107
I4
sS'Said Close'
p3108
I2
sS'Over Officer'
p3109
I15
sS'Will Fail'
p3110
I2
sS'Black Roots'
p3111
I6
sS'Tavis Smiley'
p3112
I10
sS'Best Way'
p3113
I7
sS'Long Range'
p3114
I5
sS'Both Real'
p3115
I37
sS'Million New'
p3116
I1
sS'Then Over'
p3117
I1
sS'Ice Than'
p3118
I2
sS'No Signs'
p3119
I20
sS'Real Cost'
p3120
I1
sS'Like Uber'
p3121
I37
sS'James Bond'
p3122
I139
sS'Borrow May'
p3123
I7
sS'Start Falling'
p3124
I1
sS'Hunt Over'
p3125
I15
sS'Has Marco'
p3126
I1
sS'Profit Warning'
p3127
I5
sS'Dustin Poirier'
p3128
I3
sS'Hugh Freeze'
p3129
I2
sS'German Police'
p3130
I14
sS'Second Wave'
p3131
I21
sS'In Semen'
p3132
I4
sS'Brooklyn Street'
p3133
I20
sS'Second Season'
p3134
I1
sS'Ken Whisenhunt'
p3135
I17
sS'Congress Has'
p3136
I1
sS'From Man'
p3137
I1
sS'Seth Mosely'
p3138
I1
sS'Stacy Schiff'
p3139
I74
sS'Clinton Super'
p3140
I1
sS'John Grisham'
p3141
I15
sS'See All'
p3142
I110
sS'Brandon Scherff'
p3143
I2
sS'Polanski Case'
p3144
I1
sS'World Powers'
p3145
I9
sS'Why World'
p3146
I1
sS'League Deal'
p3147
I8
sS'Nick Young'
p3148
I1
sS'Times Taylor'
p3149
I2
sS'Than Later'
p3150
I32
sS'Stands Pat'
p3151
I22
sS'Million Man'
p3152
I2
sS'Bridge Getting'
p3153
I109
sS'Northern Syria'
p3154
I1
sS'Swim In'
p3155
I1
sS'Her Hunger'
p3156
I2
sS'Vote In'
p3157
I2
sS'First Jobs'
p3158
I1
sS'Princess Diana'
p3159
I23
sS'Friend He'
p3160
I1
sS'Patrick Harris'
p3161
I43
sS'Ryan Kerrigan'
p3162
I1
sS'West Takes'
p3163
I8
sS'Coffee More'
p3164
I18
sS'Solid Gains'
p3165
I1
sS'Kevin Johnson'
p3166
I9
sS'Over Patient'
p3167
I1
sS'World Press'
p3168
I2
sS'Archer Daniels'
p3169
I1
sS'Tony Blair'
p3170
I40
sS'Silver Wheaton'
p3171
I2
sS'Peter Luger'
p3172
I1
sS'San Bernardino'
p3173
I2
sS'Hewlett Packard'
p3174
I60
sS'Poland Hands'
p3175
I1
sS'See Fines'
p3176
I20
sS'Stocks Boom'
p3177
I1
sS'Post More'
p3178
I2
sS'How Britain'
p3179
I4
sS'How Serena'
p3180
I1
sS'Syria Will'
p3181
I3
sS'Cash Pinch'
p3182
I4
sS'How Asia'
p3183
I14
sS'Short Seller'
p3184
I35
sS'John Cook'
p3185
I3
sS'Clinton Server'
p3186
I3
sS'Real Madrid'
p3187
I1
sS'Real Reason'
p3188
I3
sS'Hard Life'
p3189
I3
sS'Will Walk'
p3190
I1
sS'Irish Dance'
p3191
I45
sS'Adam Levine'
p3192
I122
sS'John Wall'
p3193
I12
sS'Stewart Counts'
p3194
I2
sS'From Bible'
p3195
I2
sS'Agent Cash'
p3196
I1
sS'Pour In'
p3197
I1
sS'Sanders Hires'
p3198
I4
sS'Emiliano Grillo'
p3199
I4
sS'So Emo'
p3200
I1
sS'Channing Tatum'
p3201
I59
sS'Million Gift'
p3202
I6
sS'Tell Her'
p3203
I118
sS'Cos Over'
p3204
I9
sS'Enter West'
p3205
I1
sS'Will Alert'
p3206
I2
sS'Abbey Green'
p3207
I1
sS'Carmelo Anthony'
p3208
I19
sS'Jae Crowder'
p3209
I2
sS'Lauren Groff'
p3210
I28
sS'From London'
p3211
I14
sS'Over Student'
p3212
I2
sS'From Josh'
p3213
I21
sS'England Takes'
p3214
I1
sS'App Store'
p3215
I16
sS'Be Shown'
p3216
I1
sS'Zone Shows'
p3217
I1
sS'Colin Welland'
p3218
I18
sS'Ann Dowd'
p3219
I37
sS'Goldman Banker'
p3220
I1
sS'Hugo Boss'
p3221
I2
sS'From Speaker'
p3222
I4
sS'Like You'
p3223
I37
sS'Child Down'
p3224
I22
sS'Herald Public'
p3225
I9
sS'Phoenix Lake'
p3226
I1
sS'Black Churches'
p3227
I8
sS'In Homes'
p3228
I1
sS'Sell New'
p3229
I10
sS'Kirstie Alley'
p3230
I4
sS'Gus Kenworthy'
p3231
I123
sS'How Muni'
p3232
I84
sS'On Stage'
p3233
I36
sS'Elaine May'
p3234
I11
sS'Rock Stars'
p3235
I16
sS'Why Bush'
p3236
I1
sS'Bank Case'
p3237
I7
sS'Ian Bremmer'
p3238
I251
sS'Garrett Temple'
p3239
I2
sS'Tell Money'
p3240
I1
sS'Short List'
p3241
I6
sS'To Walk'
p3242
I1
sS'But Profit'
p3243
I1
sS'Women Found'
p3244
I6
sS'Every Drop'
p3245
I15
sS'American Richard'
p3246
I1
sS'San Antonio'
p3247
I4
sS'Sees Flurry'
p3248
I13
sS'Uber Said'
p3249
I58
sS'State Aid'
p3250
I14
sS'Juan Uribe'
p3251
I1
sS'Be Found'
p3252
I6
sS'Uchimura Wins'
p3253
I19
sS'Amy Schumer'
p3254
I214
sS'German Brand'
p3255
I6
sS'Soon Reveal'
p3256
I24
sS'Ramon Sessions'
p3257
I1
sS'Hands Reveal'
p3258
I2
sS'Love May'
p3259
I1
sS'Bills Can'
p3260
I1
sS'New Test'
p3261
I1
sS'Surprise Hug'
p3262
I93
sS'Over Royals'
p3263
I9
sS'Say Driver'
p3264
I8
sS'Child Dies'
p3265
I2
sS'New Drought'
p3266
I95
sS'Angry China'
p3267
I2
sS'Gore Vidal'
p3268
I24
sS'North Carolina'
p3269
I55
sS'No Punches'
p3270
I1
sS'Penn State'
p3271
I11
sS'Devon Still'
p3272
I2
sS'Dark Side'
p3273
I61
sS'Space Every'
p3274
I1
sS'Billie Holiday'
p3275
I3
sS'Royals Head'
p3276
I28
sS'Alfred Morris'
p3277
I6
sS'Sees New'
p3278
I3
sS'More Stores'
p3279
I1
sS'Do Better'
p3280
I2
sS'Smart Ways'
p3281
I2
sS'Dow Gains'
p3282
I1
sS'Andy Koenig'
p3283
I24
sS'Kendrick Lamar'
p3284
I10
sS'No Better'
p3285
I2
sS'More Gay'
p3286
I4
sS'Reno Sees'
p3287
I66
sS'More Storage'
p3288
I1
sS'Ken Jeong'
p3289
I11
sS'How Many'
p3290
I11
sS'Isabel Allende'
p3291
I56
sS'Montana High'
p3292
I46
sS'Blue Hair'
p3293
I16
sS'Pay Law'
p3294
I2
sS'Over China'
p3295
I22
sS'David Justice'
p3296
I3
sS'New Apple'
p3297
I47
sS'Mess Left'
p3298
I8
sS'Her Rice'
p3299
I23
sS'Car Race'
p3300
I2
sS'Damian Prince'
p3301
I1
sS'To New'
p3302
I3
sS'Than Storm'
p3303
I5
sS'Flash Flood'
p3304
I9
sS'Quiet Car'
p3305
I21
sS'Pal Billy'
p3306
I1
sS'Loss To'
p3307
I1
sS'Ireland Signs'
p3308
I4
sS'Found Safe'
p3309
I15
sS'Early Human'
p3310
I6
sS'New Star'
p3311
I7
sS'Too Big'
p3312
I25
sS'Al Golden'
p3313
I4
sS'Alex Gordon'
p3314
I5
sS'Reasons Why'
p3315
I8
sS'Tory Burch'
p3316
I24
sS'Love Locks'
p3317
I14
sS'How Low'
p3318
I3
sS'Big Ten'
p3319
I6
sS'May Go'
p3320
I2
sS'Philips China'
p3321
I13
sS'Senior Day'
p3322
I1
sS'George Brett'
p3323
I5
sS'Andy Kaufman'
p3324
I1
sS'York Has'
p3325
I2
sS'Trial May'
p3326
I9
sS'Derek Hough'
p3327
I5
sS'Old City'
p3328
I16
sS'Loud Manly'
p3329
I1
sS'Back Goes'
p3330
I1
sS'Near Deal'
p3331
I74
sS'On My'
p3332
I3
sS'Go Down'
p3333
I2
sS'Jerry Kill'
p3334
I9
sS'Major Test'
p3335
I1
sS'Student Test'
p3336
I15
sS'Fall Wine'
p3337
I47
sS'In Maryland'
p3338
I3
sS'Sharon Stone'
p3339
I3
sS'Evan Peters'
p3340
I1
sS'President Wins'
p3341
I1
sS'Pacific Sales'
p3342
I5
sS'Glass Vessel'
p3343
I7
sS'Too Strong'
p3344
I16
sS'Star Jenni'
p3345
I1
sS'Oscar Pistorius'
p3346
I62
sS'Links Rise'
p3347
I1
sS'From App'
p3348
I1
sS'Winfrey Takes'
p3349
I6
sS'Want To'
p3350
I25
sS'Wears Her'
p3351
I5
sS'On Guard'
p3352
I13
sS'Matt Jones'
p3353
I3
sS'Kayla Mueller'
p3354
I3
sS'Art Service'
p3355
I1
sS'Much World'
p3356
I1
sS'Record Button'
p3357
I16
sS'You How'
p3358
I1
sS'So Close'
p3359
I24
sS'Friends Say'
p3360
I1
sS'Speak Over'
p3361
I2
sS'Field On'
p3362
I21
sS'Jade Rush'
p3363
I3
sS'Flash Point'
p3364
I15
sS'You Keep'
p3365
I34
sS'Student From'
p3366
I3
sS'Apple Net'
p3367
I1
sS'China Ranks'
p3368
I1
sS'Record Numbers'
p3369
I1
sS'Her Clerk'
p3370
I2
sS'Sanders Over'
p3371
I12
sS'First American'
p3372
I19
sS'Jimmy Carter'
p3373
I29
sS'New Rains'
p3374
I1
sS'Thomas Gilbert'
p3375
I11
sS'Like Denmark'
p3376
I9
sS'Claude Julien'
p3377
I3
sS'Cutting Sugar'
p3378
I45
sS'Mimi Leder'
p3379
I14
sS'Bank City'
p3380
I9
sS'New Camera'
p3381
I3
sS'Over Sea'
p3382
I19
sS'New Bay'
p3383
I1
sS'Dana Graves'
p3384
I1
sS'Im Gone'
p3385
I1
sS'Coast Port'
p3386
I19
sS'Cool Off'
p3387
I2
sS'An Old'
p3388
I6
sS'Be Common'
p3389
I2
sS'Morales Wins'
p3390
I9
sS'Ranks China'
p3391
I3
sS'Why Border'
p3392
I1
sS'Gum Wall'
p3393
I47
sS'To Clear'
p3394
I1
sS'Laverne Cox'
p3395
I7
sS'Top End'
p3396
I6
sS'Fears Over'
p3397
I3
sS'Han Solo'
p3398
I1
sS'Tatum Will'
p3399
I1
sS'Greg Ip'
p3400
I11
sS'Karla Kardashian'
p3401
I7
sS'Files To'
p3402
I1
sS'Melvin Gordon'
p3403
I1
sS'See Blake'
p3404
I3
sS'Billy Beane'
p3405
I1
sS'Stay Home'
p3406
I1
sS'From Sandra'
p3407
I3
sS'Suite Must'
p3408
I8
sS'Slain Boynton'
p3409
I1
sS'Way Less'
p3410
I2
sS'Wage Gains'
p3411
I4
sS'American Music'
p3412
I1
sS'Heineken Ends'
p3413
I2
sS'Dollar Will'
p3414
I3
sS'Major Union'
p3415
I1
sS'Sleek Silver'
p3416
I4
sS'Art Fair'
p3417
I6
sS'Man Key'
p3418
I6
sS'Mike Vick'
p3419
I2
sS'Donald Trump'
p3420
I1077
sS'Wins Court'
p3421
I54
sS'Needles In'
p3422
I1
sS'Lot In'
p3423
I1
sS'Running Last'
p3424
I2
sS'More Bad'
p3425
I24
sS'School Grad'
p3426
I1
sS'Gerard Baker'
p3427
I21
sS'Sell More'
p3428
I2
sS'Nice Guy'
p3429
I4
sS'Work Signs'
p3430
I1
sS'Boomer Parents'
p3431
I1
sS'Her Second'
p3432
I1
sS'Her Way'
p3433
I13
sS'Stocks Post'
p3434
I45
sS'Nicols Maduro'
p3435
I2
sS'Camera Maker'
p3436
I1
sS'Josh Rosen'
p3437
I11
sS'Hands Cameron'
p3438
I1
sS'Dollar Drop'
p3439
I1
sS'All Began'
p3440
I9
sS'Left Door'
p3441
I1
sS'School Police'
p3442
I36
sS'Black Men'
p3443
I3
sS'On Offer'
p3444
I1
sS'Every Doctor'
p3445
I48
sS'Chuck Pagano'
p3446
I6
sS'May Lose'
p3447
I5
sS'Huge Lego'
p3448
I1
sS'Kirchner Legacy'
p3449
I3
sS'No Stranger'
p3450
I4
sS'Head Needs'
p3451
I1
sS'Daisy Ridley'
p3452
I12
sS'Wish Her'
p3453
I2
sS'Kirk Cousins'
p3454
I115
sS'Kevin Bacon'
p3455
I20
sS'Bush White'
p3456
I18
sS'Will Teach'
p3457
I1
sS'Price Gain'
p3458
I1
sS'Frederick Durant'
p3459
I1
sS'Still Knows'
p3460
I33
sS'Aldo Sohm'
p3461
I3
sS'China Takes'
p3462
I1
sS'You More'
p3463
I8
sS'Flash Season'
p3464
I1
sS'Can Do'
p3465
I2
sS'Speak To'
p3466
I5
sS'Brian Dawkins'
p3467
I1
sS'Wait See'
p3468
I5
sS'George Pataki'
p3469
I1
sS'Off Storm'
p3470
I2
sS'David Mitchell'
p3471
I35
sS'Carolina Deputy'
p3472
I2
sS'Ryan Can'
p3473
I2
sS'Beverly Hills'
p3474
I19
sS'Syria Rebel'
p3475
I8
sS'Don Lemon'
p3476
I8
sS'Willie Nelson'
p3477
I2
sS'Tower Over'
p3478
I1
sS'Seth Russell'
p3479
I15
sS'Peter Wehner'
p3480
I2
sS'Parody Adele'
p3481
I1
sS'Neil Has'
p3482
I1
sS'First Over'
p3483
I1
sS'Music Stars'
p3484
I2
sS'Will Treat'
p3485
I3
sS'Can Shape'
p3486
I71
sS'Jones Soda'
p3487
I4
sS'Goes From'
p3488
I6
sS'Vint Cerf'
p3489
I15
sS'Clinton Record'
p3490
I1
sS'Eye Trump'
p3491
I1
sS'Better Way'
p3492
I55
sS'First Look'
p3493
I57
sS'Town Sale'
p3494
I1
sS'Jersey Over'
p3495
I2
sS'Locker Room'
p3496
I21
sS'Her Friend'
p3497
I2
sS'Jamie Dimon'
p3498
I6
sS'Justin Bieber'
p3499
I53
sS'Mount Vernon'
p3500
I6
sS'Be Patient'
p3501
I1
sS'See Taylor'
p3502
I2
sS'Hastert Takes'
p3503
I4
sS'In Cuba'
p3504
I2
sS'Harry Giles'
p3505
I1
sS'In Deal'
p3506
I1
sS'Nurse Kaci'
p3507
I1
sS'Cedar Creek'
p3508
I2
sS'Nick Carter'
p3509
I4
sS'David Brooks'
p3510
I84
sS'My Hope'
p3511
I1
sS'Post Top'
p3512
I3
sS'George Lucas'
p3513
I60
sS'Captain Wright'
p3514
I23
sS'Carrie Underwood'
p3515
I43
sS'Law School'
p3516
I228
sS'Million Last'
p3517
I1
sS'Drones Face'
p3518
I12
sS'Black Wins'
p3519
I5
sS'Pool Hidden'
p3520
I24
sS'French Weatherman'
p3521
I1
sS'Star Bastian'
p3522
I3
sS'Why Bernie'
p3523
I2
sS'Feeling Lucky'
p3524
I1
sS'Mayor Ed'
p3525
I4
sS'Lower Bond'
p3526
I1
sS'Hopes Her'
p3527
I2
sS'Adam Silver'
p3528
I3
sS'Ishmael Adams'
p3529
I1
sS'More Like'
p3530
I11
sS'Stocks Rise'
p3531
I15
sS'Fines Water'
p3532
I2
sS'Carlin Bason'
p3533
I1
sS'Braxton Miller'
p3534
I8
sS'Silverman Tell'
p3535
I43
sS'How Lindsey'
p3536
I3
sS'Anne Wojcicki'
p3537
I2
sS'To Talk'
p3538
I1
sS'Frank Stella'
p3539
I4
sS'Million To'
p3540
I1
sS'Off New'
p3541
I10
sS'Jerome Kass'
p3542
I54
sS'Sybil Stockdale'
p3543
I14
sS'Walks Line'
p3544
I3
sS'To Be'
p3545
I89
sS'Rout Royals'
p3546
I4
sS'Why Rand'
p3547
I2
sS'Civil Case'
p3548
I13
sS'Bill Long'
p3549
I4
sS'Record Hole'
p3550
I1
sS'Bible Study'
p3551
I2
sS'Credit Score'
p3552
I3
sS'Test China'
p3553
I1
sS'Isaiah Thomas'
p3554
I3
sS'Ranks Last'
p3555
I1
sS'Aid Flow'
p3556
I1
sS'Barbie Doll'
p3557
I1
sS'Down Grantland'
p3558
I49
sS'Spies Kid'
p3559
I1
sS'Seals Off'
p3560
I12
sS'Harvey Day'
p3561
I1
sS'Little Clarity'
p3562
I1
sS'Plain English'
p3563
I4
sS'Bolster Ben'
p3564
I1
sS'Will Stock'
p3565
I11
sS'Coral Dress'
p3566
I1
sS'Mueller Dies'
p3567
I1
sS'Lock Horns'
p3568
I17
sS'Church To'
p3569
I1
sS'Days In'
p3570
I2
sS'Jesus Wear'
p3571
I12
sS'Rotunda Go'
p3572
I13
sS'Minister Justin'
p3573
I7
sS'Bitter Memory'
p3574
I16
sS'New Leader'
p3575
I5
sS'To School'
p3576
I6
sS'Wait To'
p3577
I1
sS'Begin Down'
p3578
I1
sS'Face Trial'
p3579
I3
sS'Ian Poulter'
p3580
I4
sS'Lose In'
p3581
I1
sS'Going To'
p3582
I5
sS'Clinton Bucks'
p3583
I7
sS'Pour On'
p3584
I9
sS'Irwin Schiff'
p3585
I2
sS'Arab Citizen'
p3586
I3
sS'Justin Rose'
p3587
I1
sS'Stake Can'
p3588
I13
sS'See Jared'
p3589
I1
sS'Town Deal'
p3590
I26
sS'Running Wild'
p3591
I2
sS'Can Disney'
p3592
I1
sS'So Mark'
p3593
I2
sS'From High'
p3594
I2
sS'Street Artist'
p3595
I3
sS'World Catholic'
p3596
I1
sS'American Church'
p3597
I4
sS'House Reach'
p3598
I13
sS'To Clinton'
p3599
I1
sS'Heal Better'
p3600
I1
sS'All Right'
p3601
I77
sS'High School'
p3602
I163
sS'Drone Cargo'
p3603
I1
sS'Andrew Garfield'
p3604
I10
sS'Angeles Sheriff'
p3605
I1
sS'Big Way'
p3606
I4
sS'Julien Studley'
p3607
I8
sS'Tom Jones'
p3608
I1
sS'Joe Philbin'
p3609
I2
sS'Thomas Jefferson'
p3610
I23
sS'Bill Cosby'
p3611
I61
sS'Maine Waters'
p3612
I18
sS'Maker Snyder'
p3613
I2
sS'Small World'
p3614
I4
sS'German Mayoral'
p3615
I33
sS'Border Hand'
p3616
I1
sS'Cardinal Donald'
p3617
I2
sS'Back In'
p3618
I5
sS'George Soros'
p3619
I19
sS'Grave Music'
p3620
I1
sS'Fukunaga Talk'
p3621
I1
sS'Louis Arch'
p3622
I18
sS'Bernie Sanders'
p3623
I725
sS'Edie Campbell'
p3624
I2
sS'How Huge'
p3625
I34
sS'Come Home'
p3626
I57
sS'Vice Chancellor'
p3627
I1
sS'Small Car'
p3628
I1
sS'To Store'
p3629
I4
sS'Show You'
p3630
I4
sS'West Point'
p3631
I2
sS'Off All'
p3632
I42
sS'Best Surprise'
p3633
I93
sS'Daniel Craig'
p3634
I28
sS'Why China'
p3635
I15
sS'Metta World'
p3636
I4
sS'Crimes During'
p3637
I3
sS'On Sale'
p3638
I5
sS'German Student'
p3639
I3
sS'Good Start'
p3640
I1
sS'Kardashian Odom'
p3641
I3
sS'Susan Schneider'
p3642
I3
sS'Sticker Shock'
p3643
I1
sS'On Point'
p3644
I48
sS'Court Turns'
p3645
I3
sS'James Turrell'
p3646
I2
sS'Plane On'
p3647
I1
sS'Plate Case'
p3648
I1
sS'Tipping Point'
p3649
I76
sS'Can Swim'
p3650
I1
sS'Low Voter'
p3651
I1
sS'Cargill Stake'
p3652
I1
sS'Axel Springer'
p3653
I17
sS'Stay Low'
p3654
I1
sS'Over Body'
p3655
I2
sS'Taylor Swift'
p3656
I504
sS'Old Apple'
p3657
I24
sS'Band Leader'
p3658
I12
sS'Brooklyn Doctor'
p3659
I4
sS'Stewart Heads'
p3660
I2
sS'Beat Royals'
p3661
I27
sS'John Brennan'
p3662
I2
sS'Her Alias'
p3663
I8
sS'See Andy'
p3664
I1
sS'Jennifer Grey'
p3665
I1
sS'Johnny Cueto'
p3666
I9
sS'Ship May'
p3667
I13
sS'Her Weight'
p3668
I1
sS'Roger Federer'
p3669
I5
sS'Royal Alex'
p3670
I5
sS'My Life'
p3671
I2
sS'Bottom Lines'
p3672
I2
sS'To Trick'
p3673
I7
sS'First Glimpse'
p3674
I18
sS'Barney Frank'
p3675
I59
sS'Player Lamar'
p3676
I2
sS'King Kong'
p3677
I6
sS'Sonny Bill'
p3678
I10
sS'Honor Martin'
p3679
I3
sS'El Al'
p3680
I1
sS'Minister Trudeau'
p3681
I2
sS'Ron Gardenhire'
p3682
I1
sS'Why Killer'
p3683
I1
sS'Oakley Back'
p3684
I1
sS'Union Sing'
p3685
I22
sS'Why He'
p3686
I13
sS'Last Night'
p3687
I23
sS'Labor Market'
p3688
I5
sS'House Sees'
p3689
I6
sS'From Maryland'
p3690
I6
sS'In Wake'
p3691
I3
sS'College Weight'
p3692
I18
sS'Lewis Hamilton'
p3693
I1
sS'Christian Hackenberg'
p3694
I3
sS'Back Warning'
p3695
I6
sS'Love You'
p3696
I4
sS'Rise In'
p3697
I1
sS'Trudeau Wins'
p3698
I5
sS'Takes Fall'
p3699
I18
sS'Apple Music'
p3700
I106
sS'Clay Buchholz'
p3701
I1
sS'Surface Book'
p3702
I49
sS'Matt Damon'
p3703
I6
sS'Fear Loss'
p3704
I4
sS'Charles Koch'
p3705
I3
sS'Key Southern'
p3706
I5
sS'Jews Enter'
p3707
I1
sS'Big Miss'
p3708
I4
sS'North Jersey'
p3709
I2
sS'Bush Has'
p3710
I26
sS'Coach Bill'
p3711
I1
sS'From Staten'
p3712
I3
sS'Gary Cohn'
p3713
I1
sS'Eddie Murphy'
p3714
I130
sS'Bob Dylan'
p3715
I6
sS'Seek Driver'
p3716
I2
sS'Pay Off'
p3717
I7
sS'Love Us'
p3718
I1
sS'From France'
p3719
I15
sS'Turns More'
p3720
I10
sS'Roger Goodell'
p3721
I2
sS'Running Mates'
p3722
I2
sS'Cargo Plane'
p3723
I47
sS'Wins Man'
p3724
I65
sS'Solar Power'
p3725
I8
sS'Much Better'
p3726
I2
sS'South Dakota'
p3727
I46
sS'Jake Shears'
p3728
I1
sS'May Link'
p3729
I4
sS'Smart Home'
p3730
I3
sS'Common Core'
p3731
I14
sS'Win Canada'
p3732
I1
sS'Jews From'
p3733
I16
sS'Tempest Over'
p3734
I2
sS'Warm Sea'
p3735
I2
sS'Bader Ginsburg'
p3736
I30
sS'Life From'
p3737
I2
sS'Than Other'
p3738
I5
sS'Back Fleet'
p3739
I20
sS'Trial Can'
p3740
I16
sS'Canada Pares'
p3741
I8
sS'Check In'
p3742
I56
sS'Tune Apple'
p3743
I1
sS'Kevin Durant'
p3744
I13
sS'Gervais Has'
p3745
I1
sS'Smaller Balls'
p3746
I8
sS'York Condo'
p3747
I30
sS'Washington Wire'
p3748
I26
sS'Chris Johnson'
p3749
I2
sS'Weight Gain'
p3750
I26
sS'Warns Battle'
p3751
I3
sS'In Oregon'
p3752
I1
sS'Huntington Ingalls'
p3753
I60
sS'Dark Waters'
p3754
I2
sS'Will Diesel'
p3755
I6
sS'Warner Cable'
p3756
I47
sS'First College'
p3757
I12
sS'Kill All'
p3758
I17
sS'High Pitch'
p3759
I4
sS'Stephen Curry'
p3760
I20
sS'East Asia'
p3761
I2
sS'Line Must'
p3762
I3
sS'High Line'
p3763
I72
sS'Pistorius Case'
p3764
I2
sS'Russian Space'
p3765
I1
sS'To An'
p3766
I1
sS'Andrew Friedman'
p3767
I5
sS'Florida Cull'
p3768
I4
sS'Other Hollywood'
p3769
I58
sS'Look So'
p3770
I10
sS'Jon Stewart'
p3771
I92
sS'Swan Song'
p3772
I7
sS'Old Man'
p3773
I1
sS'Tennis Hall'
p3774
I3
sS'First State'
p3775
I8
sS'Fine Just'
p3776
I1
sS'Greg Hardy'
p3777
I11
sS'How Marco'
p3778
I26
sS'Will Bring'
p3779
I2
sS'Six Big'
p3780
I1
sS'Deep Space'
p3781
I1
sS'Mara Wears'
p3782
I5
sS'Echo Park'
p3783
I1
sS'Vernon Davis'
p3784
I13
sS'Elton John'
p3785
I2
sS'Steve Kerr'
p3786
I1
sS'Bowling Alley'
p3787
I1
sS'Catalan President'
p3788
I7
sS'Do More'
p3789
I5
sS'Man He'
p3790
I1
sS'Pare Gains'
p3791
I1
sS'Save Jamaica'
p3792
I17
sS'Wedding Ring'
p3793
I2
sS'Chill Room'
p3794
I1
sS'Aid Speaker'
p3795
I2
sS'Brian Williams'
p3796
I5
sS'Jamie Zimmerman'
p3797
I5
sS'George Mason'
p3798
I2
sS'Holly Holm'
p3799
I48
sS'Off Sunday'
p3800
I1
sS'Win World'
p3801
I22
sS'Apple Warns'
p3802
I1
sS'China Ends'
p3803
I11
sS'New Law'
p3804
I5
sS'On Pro'
p3805
I41
sS'Carolina Shores'
p3806
I3
sS'Martin Klein'
p3807
I1
sS'Kardashian Speaks'
p3808
I2
sS'Nickell Robey'
p3809
I1
sS'Sachs Banker'
p3810
I128
sS'An Army'
p3811
I2
sS'Wins Poland'
p3812
I17
sS'Island Home'
p3813
I16
sS'See He'
p3814
I1
sS'Jason Garrett'
p3815
I1
sS'On George'
p3816
I12
sS'Ryan Stands'
p3817
I1
sS'First Batch'
p3818
I7
sS'Fort Myers'
p3819
I5
sS'Economy Grew'
p3820
I5
sS'Goes Down'
p3821
I6
sS'Media Stocks'
p3822
I3
sS'Shows Cash'
p3823
I17
sS'New Book'
p3824
I7
sS'Will Fly'
p3825
I1
sS'Child Rape'
p3826
I1
sS'How Bernie'
p3827
I2
sS'Elizabeth Banks'
p3828
I1
sS'Odom Just'
p3829
I1
sS'Fox Just'
p3830
I1
sS'Cross State'
p3831
I2
sS'Muslim Age'
p3832
I3
sS'Charleston Church'
p3833
I19
sS'Deep River'
p3834
I7
sS'Style From'
p3835
I5
sS'Amy Poehler'
p3836
I1
sS'Fruit Just'
p3837
I1
sS'Shows Off'
p3838
I48
sS'To Marx'
p3839
I11
sS'Chrissy Teigen'
p3840
I48
sS'Banks Must'
p3841
I3
sS'From Getting'
p3842
I5
sS'China Has'
p3843
I1
sS'Silver Spring'
p3844
I33
sS'Favorite Books'
p3845
I203
sS'Alter Police'
p3846
I6
sS'Prairie States'
p3847
I1
sS'Dennis Pitta'
p3848
I3
sS'La Salle'
p3849
I1
sS'Mario Draghi'
p3850
I32
sS'Syria Peace'
p3851
I37
sS'Why Miners'
p3852
I13
sS'Screen All'
p3853
I5
sS'Pernod Ricard'
p3854
I7
sS'Patricia Shows'
p3855
I34
sS'Zachary Hammond'
p3856
I3
sS'Wear Fake'
p3857
I2
sS'Strange Case'
p3858
I70
sS'From Brain'
p3859
I1
sS'Cost More'
p3860
I16
sS'Ivy Channel'
p3861
I5
sS'Howard Marks'
p3862
I4
sS'Stella Tennant'
p3863
I5
sS'Bail Too'
p3864
I1
sS'Dollar Lower'
p3865
I3
sS'Katie Holmes'
p3866
I15
sS'Strong Start'
p3867
I8
sS'Odom Kidney'
p3868
I2
sS'Summer Camp'
p3869
I9
sS'Big Money'
p3870
I80
sS'Show Odom'
p3871
I1
sS'On Call'
p3872
I3
sS'Red Will'
p3873
I4
sS'Lines From'
p3874
I1
sS'Prince William'
p3875
I29
sS'Lose Part'
p3876
I3
sS'Urban Meyer'
p3877
I1
sS'City High'
p3878
I2
sS'Longest Single'
p3879
I2
sS'France Try'
p3880
I83
sS'Claude Giroux'
p3881
I2
sS'Tiny Town'
p3882
I3
sS'Gather Force'
p3883
I12
sS'Bing Search'
p3884
I1
sS'Be Born'
p3885
I5
sS'Shows Officer'
p3886
I12
sS'Derrick Coleman'
p3887
I1
sS'Greek Minister'
p3888
I8
sS'Will Jon'
p3889
I1
sS'Rising Cost'
p3890
I1
sS'From Black'
p3891
I14
sS'Ryan May'
p3892
I17
sS'Lamb Curry'
p3893
I71
sS'Begin Second'
p3894
I1
sS'Chris Simms'
p3895
I1
sS'Broadway Press'
p3896
I5
sS'New Bottom'
p3897
I1
sS'Kristina Brown'
p3898
I20
sS'Than Angry'
p3899
I2
sS'Valley Kraft'
p3900
I1
sS'Back Job'
p3901
I6
sS'Lydia Ko'
p3902
I1
sS'First Test'
p3903
I1
sS'Story Has'
p3904
I3
sS'Pacific Coast'
p3905
I21
sS'Bring Ellie'
p3906
I36
sS'Fargo Profit'
p3907
I6
sS'Jason Hammel'
p3908
I1
sS'How Weight'
p3909
I1
sS'Lose Weight'
p3910
I5
sS'Seek Delay'
p3911
I1
sS'New President'
p3912
I10
sS'Lizzie Baker'
p3913
I1
sS'Jared Fogle'
p3914
I4
sS'Head Coach'
p3915
I2
sS'Start First'
p3916
I1
sS'Michael Traynor'
p3917
I4
sS'On Police'
p3918
I2
sS'Down All'
p3919
I16
sS'In Latin'
p3920
I2
sS'To Aid'
p3921
I2
sS'Song Big'
p3922
I1
sS'Search Sea'
p3923
I27
sS'Led Him'
p3924
I17
sS'Grave Balk'
p3925
I25
sS'Race Test'
p3926
I15
sS'Hollywood From'
p3927
I2
sS'Pizza Box'
p3928
I7
sS'Profit Rose'
p3929
I4
sS'Rape Case'
p3930
I1
sS'Freddie Mac'
p3931
I3
sS'Setting Gold'
p3932
I1
sS'Just Kill'
p3933
I4
sS'First Court'
p3934
I1
sS'New Floor'
p3935
I8
sS'Trainor Cluck'
p3936
I1
sS'More Living'
p3937
I29
sS'Chris Christie'
p3938
I64
sS'Christmas Season'
p3939
I1
sS'War Torn'
p3940
I5
sS'Jake Layman'
p3941
I2
sS'Jon Snow'
p3942
I72
sS'Magic Johnson'
p3943
I4
sS'Memo From'
p3944
I3
sS'Will Carry'
p3945
I1
sS'Banco Santander'
p3946
I3
sS'Younger Women'
p3947
I2
sS'My Space'
p3948
I4
sS'Heinz Plant'
p3949
I1
sS'Catchings Will'
p3950
I1
sS'Will Pay'
p3951
I2
sS'Jes Staley'
p3952
I16
sS'George Boole'
p3953
I66
sS'Fallen Like'
p3954
I1
sS'York Church'
p3955
I22
sS'How Bush'
p3956
I8
sS'Us Too'
p3957
I1
sS'Andy Murray'
p3958
I3
sS'Pines Fire'
p3959
I3
sS'May Strike'
p3960
I5
sS'Tom Clancy'
p3961
I48
sS'Aid Deal'
p3962
I6
sS'Uber App'
p3963
I13
sS'But Black'
p3964
I1
sS'Raid Media'
p3965
I2
sS'Jon Bon'
p3966
I4
sS'Kris Jenner'
p3967
I1
sS'Malcolm Culmer'
p3968
I1
sS'Goes All'
p3969
I5
sS'Lakes Fish'
p3970
I1
sS'Shows Why'
p3971
I4
sS'Paul Rode'
p3972
I6
sS'Too Rich'
p3973
I5
sS'North Star'
p3974
I1
sS'Backe Dies'
p3975
I47
sS'Hack Warning'
p3976
I6
sS'Swiss Right'
p3977
I17
sS'Like More'
p3978
I2
sS'November Than'
p3979
I1
sS'New King'
p3980
I21
sS'Comfort From'
p3981
I11
sS'But Threat'
p3982
I4
sS'During Police'
p3983
I1
sS'Tim Wallach'
p3984
I1
sS'Matt Black'
p3985
I5
sS'Home Kitchen'
p3986
I4
sS'Lennart Anderson'
p3987
I30
sS'Little Money'
p3988
I3
sS'Like From'
p3989
I4
sS'Lennie James'
p3990
I4
sS'Free Music'
p3991
I2
sS'Right Job'
p3992
I1
sS'Sales Drop'
p3993
I2
sS'Long Line'
p3994
I26
sS'Clinton Goes'
p3995
I16
sS'Or Orange'
p3996
I1
sS'Rebel Plan'
p3997
I8
sS'Dress Like'
p3998
I140
sS'Deep South'
p3999
I3
sS'Brinkley Show'
p4000
I1
sS'Chancellor Heads'
p4001
I1
sS'An East'
p4002
I93
sS'Princess Leia'
p4003
I1
sS'Talk Hillary'
p4004
I4
sS'Art Stars'
p4005
I19
sS'Rick Nash'
p4006
I11
sS'Come Close'
p4007
I1
sS'Cory Jones'
p4008
I2
sS'Adam Schiff'
p4009
I4
sS'New Long'
p4010
I1
sS'Harvard Law'
p4011
I23
sS'Dry Eye'
p4012
I4
sS'An App'
p4013
I16
sS'Bob Marley'
p4014
I4
sS'From Oz'
p4015
I3
sS'Cameron Heyward'
p4016
I1
sS'Stores In'
p4017
I1
sS'You Care'
p4018
I1
sS'Fabian Johnson'
p4019
I1
sS'Don Newman'
p4020
I1
sS'Reach World'
p4021
I17
sS'Part Chill'
p4022
I1
sS'First World'
p4023
I35
sS'Water Main'
p4024
I1
sS'Near High'
p4025
I21
sS'Real Boss'
p4026
I2
sS'Kansas City'
p4027
I167
sS'Push Copper'
p4028
I1
sS'Memory Loss'
p4029
I1
sS'Loose Ends'
p4030
I15
sS'Work Harder'
p4031
I12
sS'Francis Owusu'
p4032
I6
sS'Will Hire'
p4033
I5
sS'From City'
p4034
I2
sS'Best Friend'
p4035
I78
sS'Max Ernst'
p4036
I19
sS'Tracy Morgan'
p4037
I132
sS'Benjamin Grosvenor'
p4038
I43
sS'Can Hire'
p4039
I12
sS'Lauren Daigle'
p4040
I1
sS'White House'
p4041
I414
sS'Point Storms'
p4042
I1
sS'Dollar Strength'
p4043
I6
sS'Russian Borders'
p4044
I19
sS'Stocks Waver'
p4045
I10
sS'Million Face'
p4046
I5
sS'Jersey Race'
p4047
I1
sS'Guardian Council'
p4048
I3
sS'Moon Landing'
p4049
I1
sS'Kardashian Never'
p4050
I2
sS'Why Harrison'
p4051
I1
sS'Blow Them'
p4052
I1
sS'Car Driver'
p4053
I5
sS'Getting Party'
p4054
I9
sS'Clinton Portis'
p4055
I2
sS'From Lower'
p4056
I7
sS'Mary Barra'
p4057
I5
sS'Takes Wing'
p4058
I1
sS'Harrison Barnes'
p4059
I2
sS'Mass Gains'
p4060
I2
sS'Will Serve'
p4061
I67
sS'Turtle From'
p4062
I2
sS'Jack Black'
p4063
I2
sS'Jenni Farley'
p4064
I2
sS'Kardashian Seen'
p4065
I1
sS'Be Worth'
p4066
I1
sS'Why Tom'
p4067
I5
sS'Shape City'
p4068
I5
sS'New Bond'
p4069
I1
sS'Rebel Wilson'
p4070
I6
sS'Sweep New'
p4071
I25
sS'To Cruz'
p4072
I4
sS'In Colorado'
p4073
I6
sS'Last Days'
p4074
I2
sS'Wins New'
p4075
I5
sS'Sales Down'
p4076
I7
sS'Kylie Jenner'
p4077
I63
sS'High Court'
p4078
I13
sS'Can Dutch'
p4079
I5
sS'Police Want'
p4080
I19
sS'Jenna Ink'
p4081
I2
sS'Top Apple'
p4082
I1
sS'Over Gun'
p4083
I12
sS'Say Trudeau'
p4084
I1
sS'Paul Smith'
p4085
I8
sS'Ranger School'
p4086
I2
sS'On An'
p4087
I77
sS'How Ben'
p4088
I6
sS'Bank Will'
p4089
I16
sS'Amy Grant'
p4090
I2
sS'Allen Moss'
p4091
I2
sS'Theo Epstein'
p4092
I15
sS'Sunday Talk'
p4093
I12
sS'Florida Show'
p4094
I1
sS'Be Just'
p4095
I45
sS'So You'
p4096
I7
sS'Lower Back'
p4097
I3
sS'Profit From'
p4098
I1
sS'Redd Foxx'
p4099
I1
sS'Chrysler Beat'
p4100
I1
sS'Ship Killer'
p4101
I2
sS'Charles Brooks'
p4102
I1
sS'Landry Jones'
p4103
I10
sS'Grow Plants'
p4104
I1
sS'Luger Party'
p4105
I1
sS'Money Like'
p4106
I1
sS'Tejada Speaks'
p4107
I3
sS'Pretzel Maker'
p4108
I5
sS'Fall Less'
p4109
I2
sS'Police Records'
p4110
I1
sS'San Jose'
p4111
I10
sS'Runner Shows'
p4112
I9
sS'Bush May'
p4113
I1
sS'New Starring'
p4114
I1
sS'Town Over'
p4115
I24
sS'Alan Simpson'
p4116
I1
sS'Maker Needs'
p4117
I1
sS'Never Heard'
p4118
I79
sS'David Shields'
p4119
I1
sS'Austria Border'
p4120
I1
sS'Mike Freeman'
p4121
I1
sS'Tiger Woods'
p4122
I17
sS'Night Goes'
p4123
I2
sS'West Coast'
p4124
I11
sS'Lose World'
p4125
I16
sS'Worn Off'
p4126
I4
sS'Spotted In'
p4127
I2
sS'So More'
p4128
I4
sS'Palo Alto'
p4129
I46
sS'Patrice Rene'
p4130
I2
sS'Trick On'
p4131
I1
sS'Labor Deal'
p4132
I24
sS'To Bury'
p4133
I4
sS'Darlena Cunha'
p4134
I5
sS'David Soo'
p4135
I3
sS'Apple To'
p4136
I7
sS'West Just'
p4137
I2
sS'Elijah Cummings'
p4138
I9
sS'Bad Weather'
p4139
I27
sS'Janet Yellen'
p4140
I76
sS'Fort Lauderdale'
p4141
I12
sS'Raid German'
p4142
I13
sS'Big Book'
p4143
I19
sS'Catholic Church'
p4144
I51
sS'Force Apple'
p4145
I3
sS'Cable Guy'
p4146
I2
sS'Fell Short'
p4147
I1
sS'Voice Search'
p4148
I5
sS'Joe Barry'
p4149
I2
sS'Daniel Radcliffe'
p4150
I59
sS'Mayor Ivy'
p4151
I2
sS'Say Apple'
p4152
I1
sS'More Life'
p4153
I2
sS'Africa Bright'
p4154
I1
sS'Fire From'
p4155
I2
sS'John Thain'
p4156
I12
sS'Links To'
p4157
I11
sS'Big House'
p4158
I7
sS'Sees Lower'
p4159
I13
sS'To Go'
p4160
I6
sS'Bob Cooter'
p4161
I3
sS'To Register'
p4162
I1
sS'Charter School'
p4163
I56
sS'Bill Gothard'
p4164
I1
sS'Worst Moment'
p4165
I1
sS'Games Or'
p4166
I1
sS'Speaker Dennis'
p4167
I8
sS'Jared Dudley'
p4168
I8
sS'People Heal'
p4169
I1
sS'Red Line'
p4170
I5
sS'Public Works'
p4171
I1
sS'Off Border'
p4172
I11
sS'Down Low'
p4173
I4
sS'State Police'
p4174
I2
sS'To Kill'
p4175
I1
sS'Jim Gilmore'
p4176
I1
sS'Poor Man'
p4177
I24
sS'Chad Kelly'
p4178
I1
sS'Denver Has'
p4179
I1
sS'Holiday Season'
p4180
I3
sS'Roads In'
p4181
I1
sS'Reach Deal'
p4182
I13
sS'Charlie Parker'
p4183
I11
sS'Little Guy'
p4184
I6
sS'Man Dies'
p4185
I4
sS'Wilds From'
p4186
I1
sS'Harlem Over'
p4187
I3
sS'Older Fan'
p4188
I93
sS'Camp During'
p4189
I19
sS'To Close'
p4190
I1
sS'Face Mask'
p4191
I8
sS'Paul George'
p4192
I1
sS'Do People'
p4193
I6
sS'Root You'
p4194
I20
sS'From Fall'
p4195
I4
sS'Border States'
p4196
I1
sS'Kelly Klein'
p4197
I10
sS'Most Awkward'
p4198
I70
sS'Navy Yard'
p4199
I116
sS'Wine School'
p4200
I89
sS'Sugar Found'
p4201
I9
sS'Press Paul'
p4202
I2
sS'Noah Syndergaard'
p4203
I18
sS'Sanders Still'
p4204
I1
sS'Over Pay'
p4205
I3
sS'Jenner Show'
p4206
I1
sS'State Bail'
p4207
I1
sS'Party Sweat'
p4208
I5
sS'Shire Still'
p4209
I11
sS'Maid Park'
p4210
I1
sS'Queen Erika'
p4211
I1
sS'Bryan Randall'
p4212
I2
sS'Swiss Chard'
p4213
I1
sS'Meek Mill'
p4214
I5
sS'American Cancer'
p4215
I27
sS'Dalton Trumbo'
p4216
I46
sS'York Officer'
p4217
I19
sS'Sam Zell'
p4218
I13
sS'Adam Sandler'
p4219
I3
sS'New Haven'
p4220
I1
sS'Why Christmas'
p4221
I1
sS'Will Jim'
p4222
I1
sS'First Song'
p4223
I1
sS'Surface During'
p4224
I2
sS'Show Little'
p4225
I2
sS'Swiss Banks'
p4226
I23
sS'Labor Force'
p4227
I2
sS'Argue Oscar'
p4228
I2
sS'Car Can'
p4229
I94
sS'Olivier Martinez'
p4230
I22
sS'Sheridan Smith'
p4231
I19
sS'Aid Orban'
p4232
I1
sS'Warning To'
p4233
I4
sS'Radar Love'
p4234
I6
sS'Quinn Cover'
p4235
I1
sS'Driver Found'
p4236
I5
sS'Nicklas Backstrom'
p4237
I5
sS'Her Book'
p4238
I1
sS'York Art'
p4239
I1
sS'Best Black'
p4240
I1
sS'New Shows'
p4241
I5
sS'Tease Her'
p4242
I1
sS'Spencer Profit'
p4243
I4
sS'How Much'
p4244
I166
sS'Andrew Zeller'
p4245
I1
sS'Why College'
p4246
I1
sS'Many Common'
p4247
I2
sS'Daily Gain'
p4248
I2
sS'To Pay'
p4249
I6
sS'Alan Cockrell'
p4250
I2
sS'Bank Board'
p4251
I15
sS'Surprise Party'
p4252
I4
sS'Royals Rout'
p4253
I4
sS'All Records'
p4254
I23
sS'Strong Sales'
p4255
I10
sS'Benedict Cumberbatch'
p4256
I1
sS'Few Signs'
p4257
I14
sS'Jay Garrick'
p4258
I1
sS'Landy Jones'
p4259
I1
sS'Her Husband'
p4260
I55
sS'Reach New'
p4261
I4
sS'Coast Guard'
p4262
I49
sS'New Spark'
p4263
I1
sS'Marty Ingels'
p4264
I47
sS'On All'
p4265
I5
sS'Show Her'
p4266
I4
sS'Wetter Than'
p4267
I1
sS'Gus Savage'
p4268
I35
sS'James Jones'
p4269
I1
sS'Stephen Colbert'
p4270
I146
sS'Part Ways'
p4271
I56
sS'Singer Signs'
p4272
I6
sS'Shows He'
p4273
I6
sS'Robert Galbraith'
p4274
I34
sS'Kim Davis'
p4275
I14
sS'Space Junk'
p4276
I10
sS'Be Too'
p4277
I3
sS'Tower Takes'
p4278
I1
sS'George Bell'
p4279
I53
sS'Court To'
p4280
I3
sS'Owen Labrie'
p4281
I16
sS'Be Better'
p4282
I4
sS'In Urban'
p4283
I1
sS'Has Never'
p4284
I8
sS'Lines Cutting'
p4285
I10
sS'Boston College'
p4286
I3
sS'Speaker Post'
p4287
I10
sS'Fred Thompson'
p4288
I135
sS'Sammy Watkins'
p4289
I3
sS'While Wearing'
p4290
I2
sS'Why General'
p4291
I12
sS'Lung Cancer'
p4292
I3
sS'How People'
p4293
I37
sS'Officer Dies'
p4294
I77
sS'Joe Klein'
p4295
I266
sS'Flowers Grow'
p4296
I2
sS'John Tortorella'
p4297
I3
sS'Mike Tyson'
p4298
I26
sS'Germany Will'
p4299
I6
sS'More People'
p4300
I26
sS'In Deep'
p4301
I1
sS'Key Ron'
p4302
I1
sS'From Hair'
p4303
I1
sS'Will Test'
p4304
I1
sS'Lawrence Lessig'
p4305
I9
sS'Royals Coach'
p4306
I24
sS'Man Booker'
p4307
I69
sS'John Stockton'
p4308
I2
sS'Michael Brown'
p4309
I1
sS'State Hires'
p4310
I5
sS'From Reading'
p4311
I2
sS'Shows Power'
p4312
I6
sS'Washington Bridge'
p4313
I109
sS'Bond Market'
p4314
I99
sS'Son Beau'
p4315
I3
sS'Deal Ends'
p4316
I6
sS'Wild West'
p4317
I5
sS'Jim Shaw'
p4318
I5
sS'Terri Upshaw'
p4319
I50
sS'Rock Back'
p4320
I1
sS'Kate Hudson'
p4321
I1
sS'Eva Chow'
p4322
I52
sS'Trump Has'
p4323
I9
sS'Stapleton Wins'
p4324
I1
sS'Old Canada'
p4325
I1
sS'Sieber Lands'
p4326
I2
sS'Yale Don'
p4327
I1
sS'But Will'
p4328
I3
sS'Why Scott'
p4329
I2
sS'Mohamed Bah'
p4330
I3
sS'Wilson Goes'
p4331
I6
sS'Coach Brought'
p4332
I20
sS'Bond Sale'
p4333
I4
sS'During Vote'
p4334
I1
sS'To Age'
p4335
I93
sS'On College'
p4336
I3
sS'All Lanes'
p4337
I1
sS'Steve Gebhardt'
p4338
I16
sS'Rebel Alliance'
p4339
I21
sS'To Swim'
p4340
I2
sS'Bear Market'
p4341
I1
sS'Trudeau Heir'
p4342
I1
sS'Harley Quinn'
p4343
I1
sS'Jay Beagle'
p4344
I3
sS'Cleveland Trucker'
p4345
I3
sS'Emmanuel Sanders'
p4346
I1
sS'China Port'
p4347
I21
sS'Kyle Snyder'
p4348
I1
sS'Steve Carlton'
p4349
I1
sS'America More'
p4350
I2
sS'New Canada'
p4351
I1
sS'Marcus Johansson'
p4352
I1
sS'Signs Bill'
p4353
I1
sS'Writer Emma'
p4354
I1
sS'Dave Roberts'
p4355
I1
sS'Curtis Granderson'
p4356
I1
sS'Big Box'
p4357
I21
sS'May Head'
p4358
I17
sS'Hearing From'
p4359
I1
sS'You Like'
p4360
I2
sS'Mountain Spar'
p4361
I4
sS'Boon From'
p4362
I4
sS'Harlem Nest'
p4363
I93
sS'Early Apple'
p4364
I1
sS'Other Kid'
p4365
I1
sS'Diamond Stone'
p4366
I1
sS'Less Than'
p4367
I200
sS'On Hollywood'
p4368
I2
sS'Free From'
p4369
I2
sS'Brought Down'
p4370
I6
sS'Flint Water'
p4371
I1
sS'Bella Bond'
p4372
I4
sS'Real World'
p4373
I6
sS'Win New'
p4374
I5
sS'Other Party'
p4375
I97
sS'York Red'
p4376
I1
sS'Look Like'
p4377
I2
sS'Man Cave'
p4378
I2
sS'Speaker Paul'
p4379
I3
sS'Young Stars'
p4380
I21
sS'Tom Hanks'
p4381
I92
sS'Ship Deal'
p4382
I3
sS'On North'
p4383
I1
sS'Stocks Fall'
p4384
I14
sS'Both Steve'
p4385
I1
sS'Apple App'
p4386
I6
sS'Zimmerman Dies'
p4387
I5
sS'Guard Ends'
p4388
I1
sS'Off San'
p4389
I1
sS'Top Real'
p4390
I8
sS'So He'
p4391
I63
sS'Homs Province'
p4392
I1
sS'In Leona'
p4393
I1
sS'Wine Every'
p4394
I1
sS'Swift Bring'
p4395
I36
sS'Cover Letters'
p4396
I5
sS'City Royals'
p4397
I106
sS'Jesse Williams'
p4398
I1
sS'East End'
p4399
I1
sS'Man Stole'
p4400
I1
sS'Tyus Jones'
p4401
I5
sS'Mouse Ditch'
p4402
I11
sS'Yellow Lights'
p4403
I7
sS'York State'
p4404
I30
sS'Storms Push'
p4405
I1
sS'York Bank'
p4406
I14
sS'Every Word'
p4407
I3
sS'Argentina Heads'
p4408
I9
sS'Clinton Shows'
p4409
I5
sS'Randy Quaid'
p4410
I7
sS'How Music'
p4411
I1
sS'Down Less'
p4412
I10
sS'Been Found'
p4413
I14
sS'Be President'
p4414
I2
sS'Bonds Shine'
p4415
I16
sS'Driver Edward'
p4416
I2
sS'Cross Drop'
p4417
I1
sS'Virginia Rotunda'
p4418
I2
sS'Side Court'
p4419
I4
sS'Tata Steel'
p4420
I16
sS'Even Her'
p4421
I1
sS'On Lamar'
p4422
I4
sS'Cindy Crawford'
p4423
I1
sS'Gum Can'
p4424
I24
sS'Florida Say'
p4425
I1
sS'James Franco'
p4426
I111
sS'In Newport'
p4427
I14
sS'Many May'
p4428
I4
sS'Ruben Tejada'
p4429
I3
sS'Merkel Links'
p4430
I8
sS'China Lowers'
p4431
I11
sS'Isabell Baltimore'
p4432
I1
sS'Tony Romo'
p4433
I5
sS'North Shores'
p4434
I1
sS'On Kirk'
p4435
I1
sS'How Merkel'
p4436
I3
sS'Hyun Soon'
p4437
I36
sS'Emilia Clarke'
p4438
I31
sS'Tamika Catchings'
p4439
I1
sS'Center Tower'
p4440
I27
sS'Can Teach'
p4441
I86
sS'Still Do'
p4442
I2
sS'Wall Street'
p4443
I153
sS'New Yorker'
p4444
I26
sS'Top Boss'
p4445
I4
sS'Kevin Davis'
p4446
I12
sS'David Wright'
p4447
I36
sS'Job While'
p4448
I1
sS'Amsterdam Music'
p4449
I1
sS'Fire Ken'
p4450
I2
sS'Top Honor'
p4451
I1
sS'May Tower'
p4452
I1
sS'Piper Jaffray'
p4453
I25
sS'First Draft'
p4454
I410
sS'Second Round'
p4455
I1
sS'May Force'
p4456
I2
sS'Patricia Head'
p4457
I2
sS'Charity Bar'
p4458
I1
sS'Mark Wahlberg'
p4459
I5
sS'More Police'
p4460
I1
sS'Louis Church'
p4461
I14
sS'Matthew Broderick'
p4462
I31
sS'Ellie Goulding'
p4463
I36
sS'Music Room'
p4464
I24
sS'Win Even'
p4465
I36
sS'Lenny Dykstra'
p4466
I2
sS'Both Sides'
p4467
I31
sS'Meghan Trainor'
p4468
I5
sS'Link May'
p4469
I6
sS'To Fix'
p4470
I1
sS'New Math'
p4471
I17
sS'Christie Veto'
p4472
I12
sS'Police Shutter'
p4473
I6
sS'Candis Cayne'
p4474
I1
sS'Car Deal'
p4475
I12
sS'More Search'
p4476
I13
sS'Winter Will'
p4477
I2
sS'Will Go'
p4478
I9
sS'Royal Pain'
p4479
I7
sS'Rubio Lands'
p4480
I1
sS'Has Over'
p4481
I84
sS'Beth Levine'
p4482
I1
sS'Holy Land'
p4483
I1
sS'North Pole'
p4484
I94
sS'In September'
p4485
I1
sS'Why Do'
p4486
I16
sS'Vessel Sinks'
p4487
I3
sS'You Kill'
p4488
I1
sS'Station Turns'
p4489
I3
sS'Al Molinaro'
p4490
I63
sS'Takes Carnegie'
p4491
I43
sS'Means Southern'
p4492
I6
sS'Justin Trudeau'
p4493
I215
sS'Shows Clinton'
p4494
I7
sS'Canada Will'
p4495
I4
sS'Kim Kardashian'
p4496
I48
sS'Push Back'
p4497
I41
sS'Cone Falls'
p4498
I30
sS'Ben Fields'
p4499
I8
sS'China Hack'
p4500
I3
sS'Minister Pierre'
p4501
I1
sS'Wins Men'
p4502
I3
sS'Doug Martin'
p4503
I2
sS'New Song'
p4504
I13
sS'Mile Race'
p4505
I2
sS'Bullock On'
p4506
I1
sS'Cosby While'
p4507
I1
sS'Corey Jones'
p4508
I58
sS'Few People'
p4509
I43
sS'Go On'
p4510
I52
sS'Getting Hurt'
p4511
I24
sS'Spray Shows'
p4512
I7
sS'Than Stars'
p4513
I1
sS'Has Cancer'
p4514
I1
sS'Daniel Norris'
p4515
I3
sS'Bank Head'
p4516
I8
sS'World Bank'
p4517
I2
sS'Philip Morris'
p4518
I5
sS'Town Said'
p4519
I5
sS'Steve Williams'
p4520
I2
sS'Lois Lerner'
p4521
I35
sS'Slaughter Room'
p4522
I3
sS'Can Stay'
p4523
I4
sS'Warhol Diss'
p4524
I2
sS'Sea Storms'
p4525
I1
sS'Gun Laws'
p4526
I36
sS'Goldman Sachs'
p4527
I31
sS'Blood Bath'
p4528
I2
sS'James Earl'
p4529
I48
sS'Why Media'
p4530
I2
sS'Square Files'
p4531
I4
sS'Eliza Gray'
p4532
I141
sS'Sallie Mae'
p4533
I1
sS'Trudeau New'
p4534
I1
sS'Prime Minster'
p4535
I1
sS'Can Grow'
p4536
I1
sS'Colorado Street'
p4537
I1
sS'Most Stuck'
p4538
I3
sS'Prime Minister'
p4539
I154
sS'More Jews'
p4540
I6
sS'Deal Work'
p4541
I32
sS'State Dianna'
p4542
I5
sS'Much More'
p4543
I68
sS'Jordan Matthews'
p4544
I2
sS'Ken Taylor'
p4545
I14
sS'Top Clinton'
p4546
I19
sS'Over New'
p4547
I41
sS'Geno Smith'
p4548
I3
sS'Why Chuck'
p4549
I1
sS'Falling Off'
p4550
I34
sS'To Care'
p4551
I1
sS'From New'
p4552
I30
sS'Copper Lower'
p4553
I1
sS'No State'
p4554
I1
sS'Master Her'
p4555
I23
sS'South Carolina'
p4556
I91
sS'Henry Hill'
p4557
I27
sS'Win Over'
p4558
I32
sS'China Life'
p4559
I11
sS'You Heard'
p4560
I1
sS'You Block'
p4561
I3
sS'Courts China'
p4562
I20
sS'Plan To'
p4563
I2
sS'Search To'
p4564
I5
sS'Deep Sea'
p4565
I1
sS'Salvador Perez'
p4566
I5
sS'Jeff Gordon'
p4567
I3
sS'Down Law'
p4568
I6
sS'Leon Bibb'
p4569
I11
sS'Will Rise'
p4570
I101
sS'Borders Close'
p4571
I3
sS'Terry Collins'
p4572
I29
sS'Ben Carson'
p4573
I638
sS'Ricky Gervais'
p4574
I34
sS'Emily Oster'
p4575
I159
sS'Perry Sing'
p4576
I1
sS'James Has'
p4577
I1
sS'In Paris'
p4578
I4
sS'Near Session'
p4579
I1
sS'Olivia Wilde'
p4580
I25
sS'Over Credit'
p4581
I1
sS'Over Locker'
p4582
I1
sS'Woody Allen'
p4583
I1
sS'An American'
p4584
I2
sS'Child Goes'
p4585
I21
sS'Cobble Hill'
p4586
I3
sS'China Reveal'
p4587
I6
sS'Campus Fears'
p4588
I1
sS'Joe Batt'
p4589
I11
sS'Mary Jane'
p4590
I49
sS'Takes On'
p4591
I63
sS'How You'
p4592
I96
sS'You People'
p4593
I5
sS'Eagles Mascot'
p4594
I1
sS'Gun Battle'
p4595
I1
sS'Gene Test'
p4596
I3
sS'Man Held'
p4597
I1
sS'Sales Crown'
p4598
I14
sS'Turns Hillary'
p4599
I2
sS'Bees Love'
p4600
I1
sS'Bear Brunt'
p4601
I25
sS'White Men'
p4602
I8
sS'Woodson High'
p4603
I14
sS'Over Leak'
p4604
I12
sS'Smith Grant'
p4605
I5
sS'Kane Will'
p4606
I2
sS'Travis Benjamin'
p4607
I1
sS'Dianna Duran'
p4608
I6
sS'Can Render'
p4609
I7
sS'Why Cutting'
p4610
I4
sS'Sachs Will'
p4611
I1
sS'Them Simple'
p4612
I3
sS'Seen Able'
p4613
I1
sS'Byron Scott'
p4614
I2
sS'From Asia'
p4615
I3
sS'Day Marks'
p4616
I4
sS'Simon Shuster'
p4617
I7
sS'Records Reveal'
p4618
I2
sS'My Super'
p4619
I5
sS'Mike Huckabee'
p4620
I2
sS'German Rival'
p4621
I14
sS'Why Jennifer'
p4622
I10
sS'Big Loss'
p4623
I20
sS'My Lilly'
p4624
I1
sS'Hinkley Point'
p4625
I15
sS'Favor Vote'
p4626
I4
sS'China Last'
p4627
I3
sS'Hard Day'
p4628
I1
sS'Zach Hammond'
p4629
I1
sS'Why El'
p4630
I15
sS'Joy Ends'
p4631
I14
sS'Prince Ali'
p4632
I3
sS'Off Lamar'
p4633
I1
sS'Been Living'
p4634
I2
sS'Joy Milne'
p4635
I2
sS'Manuel Rosales'
p4636
I3
sS'Jack Ma'
p4637
I1
sS'Plane Has'
p4638
I25
sS'Ted Cruz'
p4639
I87
sS'Rachel Dolezal'
p4640
I3
sS'Spell Doom'
p4641
I2
sS'Perfect Doctor'
p4642
I1
sS'Back Door'
p4643
I3
sS'Canning Todd'
p4644
I4
sS'Best Hope'
p4645
I5
sS'More Roles'
p4646
I24
sS'Solar Car'
p4647
I2
sS'James Martin'
p4648
I1
sS'Case Turns'
p4649
I72
sS'New Orleans'
p4650
I13
sS'Bacon Cancer'
p4651
I3
sS'Harris Wins'
p4652
I1
sS'Canada Back'
p4653
I1
sS'In Flight'
p4654
I1
sS'San Quentin'
p4655
I2
sS'Senate In'
p4656
I1
sS'Jeff Probst'
p4657
I1
sS'Dan Campbell'
p4658
I4
sS'Tiana Stewart'
p4659
I1
sS'In Surprise'
p4660
I5
sS'Crew Members'
p4661
I19
sS'Dion Lewis'
p4662
I3
sS'Lake Braddock'
p4663
I2
sS'Rick Carlisle'
p4664
I1
sS'From Clinton'
p4665
I17
sS'Bobbi Kristina'
p4666
I22
sS'Start Life'
p4667
I1
sS'From Leah'
p4668
I2
sS'Steve Gleason'
p4669
I1
sS'Back To'
p4670
I12
sS'Adrian Peterson'
p4671
I8
sS'Teach Us'
p4672
I2
sS'Salon Worker'
p4673
I4
sS'New Head'
p4674
I1
sS'Ivy League'
p4675
I226
sS'Howard Stern'
p4676
I2
sS'Turks Point'
p4677
I1
sS'Hurt You'
p4678
I1
sS'On Her'
p4679
I3
sS'Mean Less'
p4680
I3
sS'Western Union'
p4681
I22
sS'Vote Goes'
p4682
I9
sS'Show Big'
p4683
I7
sS'Slain Police'
p4684
I2
sS'How Ahmad'
p4685
I1
sS'Fees Pinch'
p4686
I11
sS'Night Walk'
p4687
I1
sS'Gregg Popovich'
p4688
I9
sS'Soon Be'
p4689
I3
sS'George Bush'
p4690
I14
sS'Pacific Deal'
p4691
I1
sS'Hon Hai'
p4692
I28
sS'Stream Games'
p4693
I1
sS'In Honda'
p4694
I5
sS'Israel Top'
p4695
I6
sS'Bring Weight'
p4696
I16
sS'Must Fall'
p4697
I1
sS'Bush Hails'
p4698
I2
sS'So Do'
p4699
I2
sS'Flow In'
p4700
I1
sS'Clear Win'
p4701
I1
sS'Denzel Washington'
p4702
I4
sS'Will Sell'
p4703
I3
sS'Story Season'
p4704
I1
sS'In India'
p4705
I2
sS'Hefty China'
p4706
I1
sS'Andreessen Horowitz'
p4707
I24
sS'Strong Summer'
p4708
I29
sS'See Jennifer'
p4709
I1
sS'Alliance Near'
p4710
I1
sS'Bond Case'
p4711
I2
sS'Must Be'
p4712
I2
sS'Starring Neil'
p4713
I1
sS'Bryan Greenberg'
p4714
I1
sS'Has Hurt'
p4715
I15
sS'Rae Jepsen'
p4716
I1
sS'Tone Down'
p4717
I8
sS'Shows Go'
p4718
I48
sS'Sanders Walks'
p4719
I3
sS'Marks November'
p4720
I1
sS'Sandra Bullock'
p4721
I90
sS'Ball Rolling'
p4722
I2
sS'Gains New'
p4723
I4
sS'To Do'
p4724
I3
sS'How America'
p4725
I32
sS'Joe Lombardi'
p4726
I2
sS'Aziz Ansari'
p4727
I117
sS'Over Western'
p4728
I17
sS'Than Men'
p4729
I5
sS'Carson Elrod'
p4730
I5
sS'Chris Thompson'
p4731
I5
sS'Over During'
p4732
I1
sS'Mayor Bill'
p4733
I5
sS'Michael Bierut'
p4734
I1
sS'Way To'
p4735
I40
sS'Surprise Victory'
p4736
I1
sS'Better Than'
p4737
I2
sS'Labs Profit'
p4738
I1
sS'Honeywell Profit'
p4739
I3
sS'Than Good'
p4740
I5
sS'Ray Lewis'
p4741
I3
sS'Jennifer Lopez'
p4742
I1
sS'Rousey Train'
p4743
I1
sS'Paul West'
p4744
I21
sS'Uber Just'
p4745
I1
sS'Morning Must'
p4746
I5
sS'End Polio'
p4747
I1
sS'Ace In'
p4748
I2
sS'Boast Jamie'
p4749
I3
sS'White People'
p4750
I49
sS'Mayoral Race'
p4751
I8
sS'Care Plan'
p4752
I5
sS'Chris Cooley'
p4753
I1
sS'Start November'
p4754
I3
sS'Royal Bank'
p4755
I8
sS'President In'
p4756
I1
sS'Gate Fall'
p4757
I1
sS'Brew Coffee'
p4758
I3
sS'Still Free'
p4759
I20
sS'Show Jimmy'
p4760
I1
sS'Ford Falls'
p4761
I1
sS'Roy Hamilton'
p4762
I23
sS'Battle Rain'
p4763
I1
sS'Sales Top'
p4764
I4
sS'New Speaker'
p4765
I5
sS'Worker Dies'
p4766
I4
sS'Carolina Officer'
p4767
I10
sS'Rose Has'
p4768
I1
sS'Major New'
p4769
I6
sS'Stephen Spender'
p4770
I19
sS'Peyton Manning'
p4771
I43
sS'Angelina Jolie'
p4772
I61
sS'Stone Mountain'
p4773
I1
sS'Mark Yeager'
p4774
I1
sS'Head East'
p4775
I2
sS'Boris Johnson'
p4776
I1
sS'Gold Lower'
p4777
I1
sS'Trial In'
p4778
I1
sS'South Lake'
p4779
I1
sS'Why Prince'
p4780
I7
sS'Lies You'
p4781
I1
sS'Jen Shyu'
p4782
I37
sS'Reese Crounse'
p4783
I1
sS'Sarah Waters'
p4784
I70
sS'Crafts Jobs'
p4785
I1
sS'Will Begin'
p4786
I6
sS'Tennis Champion'
p4787
I4
sS'Minors From'
p4788
I12
sS'Lionel Richie'
p4789
I176
sS'Patch Over'
p4790
I2
sS'From Jeff'
p4791
I1
sS'Day Care'
p4792
I7
sS'Shook Israel'
p4793
I1
sS'Kirchner Ally'
p4794
I2
sS'New Veto'
p4795
I1
sS'English Queen'
p4796
I42
sS'Score Late'
p4797
I2
sS'Swing Big'
p4798
I1
sS'Senate Bill'
p4799
I2
sS'Mean Right'
p4800
I2
sS'Wins Second'
p4801
I1
sS'Can Apple'
p4802
I24
sS'Sue City'
p4803
I5
sS'Laura Bush'
p4804
I3
sS'Stocks Lock'
p4805
I21
sS'Slain New'
p4806
I5
sS'Why Justin'
p4807
I9
sS'Way Too'
p4808
I1
sS'Stapleton Win'
p4809
I1
sS'Can Swing'
p4810
I1
sS'Home Life'
p4811
I19
sS'Denny Hamlin'
p4812
I2
sS'South Florida'
p4813
I48
sS'Sees No'
p4814
I13
sS'Harry Potter'
p4815
I131
sS'Fiscal Board'
p4816
I5
sS'How Yellen'
p4817
I1
sS'Never Go'
p4818
I1
sS'More Jobs'
p4819
I9
sS'Trent Williams'
p4820
I5
sS'Michael Dell'
p4821
I105
sS'High Schooler'
p4822
I21
sS'Michael Cleveland'
p4823
I3
sS'Still Look'
p4824
I3
sS'Just Fine'
p4825
I16
sS'Hunter College'
p4826
I5
sS'Jesse Jackson'
p4827
I2
sS'New Face'
p4828
I27
sS'Kennedy Wilson'
p4829
I9
sS'Ahmed Mohamed'
p4830
I37
sS'Pay Her'
p4831
I1
sS'Son Albus'
p4832
I1
sS'Trump Card'
p4833
I18
sS'Kendall Jenner'
p4834
I33
sS'Back On'
p4835
I1
sS'Price Fall'
p4836
I2
sS'Coast Ports'
p4837
I4
sS'Morgan Stanley'
p4838
I63
sS'How John'
p4839
I10
sS'Space Rock'
p4840
I4
sS'Media Say'
p4841
I26
sS'Black Church'
p4842
I1
sS'Music Hall'
p4843
I1
sS'Pincus Files'
p4844
I2
sS'Main Man'
p4845
I1
sS'Shore Over'
p4846
I6
sS'Stocks Alert'
p4847
I1
sS'Friday Night'
p4848
I1
sS'Most From'
p4849
I1
sS'Cruz Goes'
p4850
I4
sS'Santa Claus'
p4851
I105
sS'Jason Hatcher'
p4852
I1
sS'Left Ahmad'
p4853
I11
sS'Trudeau Era'
p4854
I7
sS'Sandra Bland'
p4855
I11
sS'Sharp Tone'
p4856
I15
sS'China Warns'
p4857
I4
sS'Stephan James'
p4858
I1
sS'Stops Uber'
p4859
I72
sS'Test Shows'
p4860
I52
sS'Trevor Noah'
p4861
I103
sS'All Seats'
p4862
I3
sS'Trenton Robinson'
p4863
I1
sS'Hidden Risk'
p4864
I1
sS'Toy Hall'
p4865
I5
sS'Ivory Coast'
p4866
I42
sS'On Love'
p4867
I3
sS'Settle In'
p4868
I1
sS'In Line'
p4869
I1
sS'Evangeline Lilly'
p4870
I2
sS'Victory Turns'
p4871
I20
sS'Murphy Wins'
p4872
I11
sS'Carrie Brownstein'
p4873
I81
sS'Melo Trimble'
p4874
I2
sS'Fire Hero'
p4875
I4
sS'Big Shoulders'
p4876
I10
sS'Reach Down'
p4877
I4
sS'Due To'
p4878
I2
sS'Single Child'
p4879
I1
sS'Book Left'
p4880
I1
sS'Comes From'
p4881
I2
sS'Elder Bush'
p4882
I15
sS'Last Season'
p4883
I1
sS'Way In'
p4884
I1
sS'Her Wedding'
p4885
I1
sS'Severe Weather'
p4886
I8
sS'Gold Go'
p4887
I3
sS'Sidney Crosby'
p4888
I1
sS'Buffalo Wild'
p4889
I1
sS'Pare Lofty'
p4890
I8
sS'Royals Say'
p4891
I10
sS'Strong El'
p4892
I16
sS'Ship Near'
p4893
I5
sS'Police Fire'
p4894
I4
sS'How Mario'
p4895
I1
sS'From Elton'
p4896
I2
sS'Will Fix'
p4897
I3
sS'Why Paul'
p4898
I2
sS'Stay Slim'
p4899
I1
sS'Case Sees'
p4900
I1
sS'Bill Williams'
p4901
I10
sS'Has Kepler'
p4902
I10
sS'Poll Numbers'
p4903
I3
sS'Arabian Sea'
p4904
I1
sS'Market Share'
p4905
I1
sS'City Grieves'
p4906
I3
sS'Jesse Owens'
p4907
I1
sS'From Fire'
p4908
I1
sS'Rex Bone'
p4909
I3
sS'But China'
p4910
I3
sS'Nick Jonas'
p4911
I3
sS'Go From'
p4912
I14
sS'Jimmy Morales'
p4913
I11
sS'Royal Power'
p4914
I2
sS'Hard To'
p4915
I1
sS'Big Sales'
p4916
I3
sS'Warner Profit'
p4917
I3
sS'Goes Home'
p4918
I4
sS'City Hall'
p4919
I22
sS'Grant China'
p4920
I11
sS'Lam Buys'
p4921
I3
sS'Chris Lloyd'
p4922
I5
sS'How Big'
p4923
I3
sS'Will Apple'
p4924
I1
sS'Marilyn Monroe'
p4925
I3
sS'Phil Kessel'
p4926
I1
sS'Fuel Deal'
p4927
I4
sS'Portland Timbers'
p4928
I1
sS'Jay Ratliff'
p4929
I1
sS'Stewart Cover'
p4930
I1
sS'Rising Art'
p4931
I19
sS'John Boehner'
p4932
I117
sS'High Marks'
p4933
I24
sS'Been Long'
p4934
I1
sS'Sarah Feinberg'
p4935
I2
sS'Edna Lewis'
p4936
I6
sS'Markus Vinson'
p4937
I1
sS'Gains Strength'
p4938
I7
sS'More Job'
p4939
I1
sS'Luther King'
p4940
I3
sS'Why Crystal'
p4941
I31
sS'Can See'
p4942
I1
sS'David Hoppe'
p4943
I2
sS'New Glimpse'
p4944
I1
sS'In Police'
p4945
I1
sS'Baldwin Has'
p4946
I24
sS'Huge Test'
p4947
I1
sS'Schumer Mock'
p4948
I85
sS'American Women'
p4949
I2
sS'Coach David'
p4950
I1
sS'From Prince'
p4951
I3
sS'Storage Space'
p4952
I1
sS'From Army'
p4953
I4
sS'Walter Graf'
p4954
I7
sS'In Joe'
p4955
I6
sS'Free Will'
p4956
I11
sS'Why Canada'
p4957
I24
sS'Grills Bank'
p4958
I60
sS'Keith Yandle'
p4959
I1
sS'Fears From'
p4960
I13
sS'Times Too'
p4961
I1
sS'Copa America'
p4962
I1
sS'Emma Donoghue'
p4963
I1
sS'Jim Harbaugh'
p4964
I11
sS'West Hollywood'
p4965
I95
sS'Wagers From'
p4966
I1
sS'May Delay'
p4967
I2
sS'Lambert Field'
p4968
I2
sS'Why New'
p4969
I26
sS'State Media'
p4970
I17
sS'More Generous'
p4971
I5
sS'Stone Bridge'
p4972
I9
sS'Sonny Dykes'
p4973
I1
sS'China Stocks'
p4974
I7
sS'Kevin Love'
p4975
I9
sS'People Want'
p4976
I4
sS'John Wren'
p4977
I3
sS'Hacking Case'
p4978
I3
sS'Lot Riding'
p4979
I4
sS'Flight Will'
p4980
I1
sS'So Few'
p4981
I43
sS'Joni Mitchell'
p4982
I1
sS'Women May'
p4983
I1
sS'Lords Hands'
p4984
I1
sS'Southern Comfort'
p4985
I6
sS'Ariana Grande'
p4986
I18
sS'Be Good'
p4987
I5
sS'Joe Lonsdale'
p4988
I7
sS'How Steve'
p4989
I1
sS'Walter Isaacson'
p4990
I10
sS'Valley High'
p4991
I10
sS'True Donald'
p4992
I55
sS'Debbie Reynolds'
p4993
I43
sS'Look Back'
p4994
I70
sS'Ryan From'
p4995
I1
sS'While Court'
p4996
I1
sS'Derrick Henry'
p4997
I1
sS'Black Friday'
p4998
I124
sS'How Trump'
p4999
I6
sS'Nissan Takes'
p5000
I1
sS'Just Modest'
p5001
I1
sS'Slain Officer'
p5002
I14
sS'Oregon College'
p5003
I4
sS'Dance Party'
p5004
I1
sS'New Hope'
p5005
I24
sS'Byron Wien'
p5006
I21
sS'From America'
p5007
I6
sS'Pancake Goes'
p5008
I24
sS'Bear Down'
p5009
I1
sS'Stake Purchase'
p5010
I22
sS'Reynolds American'
p5011
I1
sS'New Fall'
p5012
I8
sS'Step To'
p5013
I1
sS'Cooper Stars'
p5014
I1
sS'Harry Hamlin'
p5015
I1
sS'Him Back'
p5016
I3
sS'School Lunch'
p5017
I2
sS'Rodney Harrison'
p5018
I30
sS'Faro Crew'
p5019
I2
sS'Home Strong'
p5020
I24
sS'New Tally'
p5021
I1
sS'Nellie Hertz'
p5022
I1
sS'Love Ranch'
p5023
I5
sS'But Loss'
p5024
I5
sS'Africa Went'
p5025
I1
sS'Honor Bill'
p5026
I1
sS'China Comes'
p5027
I26
sS'Still Needs'
p5028
I3
sS'Mike Mack'
p5029
I18
sS'View Record'
p5030
I5
sS'Prime Worth'
p5031
I2
sS'Harrison Ford'
p5032
I5
sS'No Way'
p5033
I17
sS'John Berg'
p5034
I5
sS'Ruth Porat'
p5035
I1
sS'Son From'
p5036
I3
sS'Season In'
p5037
I2
sS'Student Has'
p5038
I1
sS'Want Old'
p5039
I1
sS'Carson Rising'
p5040
I13
sS'Key To'
p5041
I2
sS'Real Life'
p5042
I121
sS'Justin Timberlake'
p5043
I24
sS'Sells More'
p5044
I7
sS'Back Work'
p5045
I3
sS'Coble Dies'
p5046
I1
sS'Toll Mounts'
p5047
I11
sS'Why Nick'
p5048
I1
sS'Still Such'
p5049
I1
sS'Bob Gale'
p5050
I4
sS'Settles Over'
p5051
I15
sS'Travis Rudolph'
p5052
I1
sS'Elisa Port'
p5053
I4
sS'From Ted'
p5054
I1
sS'India Uber'
p5055
I3
sS'City App'
p5056
I41
sS'Bill Clinton'
p5057
I20
sS'Jimmy Butler'
p5058
I7
sS'Alex Ferguson'
p5059
I31
sS'Kiss Drew'
p5060
I5
sS'From Less'
p5061
I1
sS'Takes Gavel'
p5062
I21
sS'Banks Look'
p5063
I12
sS'Be Able'
p5064
I2
sS'Block Daily'
p5065
I2
sS'Do Men'
p5066
I12
sS'Star Melissa'
p5067
I1
sS'Bring New'
p5068
I1
sS'Hurt Donald'
p5069
I5
sS'New Campus'
p5070
I1
sS'New Pacific'
p5071
I3
sS'Heist Trial'
p5072
I1
sS'Cox Signs'
p5073
I3
sS'Will Paul'
p5074
I2
sS'Still Standing'
p5075
I21
sS'Way Monday'
p5076
I1
sS'Sinn Fein'
p5077
I1
sS'In Boston'
p5078
I2
sS'Royal Shakespeare'
p5079
I1
sS'Jeremy Hunt'
p5080
I1
sS'Ryan Tannehill'
p5081
I1
sS'Come True'
p5082
I27
sS'Island Seek'
p5083
I7
sS'Cancer From'
p5084
I1
sS'To Voice'
p5085
I7
sS'Cleveland Browns'
p5086
I6
sS'Wm Patrick'
p5087
I24
sS'Menzel While'
p5088
I59
sS'While Black'
p5089
I4
sS'Ivy City'
p5090
I21
sS'Downs Drone'
p5091
I19
sS'York City'
p5092
I166
sS'Try To'
p5093
I5
sS'Martinez File'
p5094
I2
sS'Stock Back'
p5095
I4
sS'Mike Rizzo'
p5096
I3
sS'On Washington'
p5097
I12
sS'Gain Too'
p5098
I7
sS'Luther Burden'
p5099
I16
sS'Jordan Clarkson'
p5100
I3
sS'Power Plan'
p5101
I1
sS'Sees Work'
p5102
I5
sS'See Roe'
p5103
I4
sS'Clinton Sees'
p5104
I11
sS'Look Ma'
p5105
I1
sS'Human Hand'
p5106
I1
sS'Pell Grant'
p5107
I1
sS'Rides Loan'
p5108
I3
sS'Rain In'
p5109
I1
sS'Off Her'
p5110
I1
sS'Fall Over'
p5111
I1
sS'Banks Shed'
p5112
I1
sS'Officer Daniel'
p5113
I1
sS'See Carrie'
p5114
I1
sS'Kareem Walker'
p5115
I1
sS'Living In'
p5116
I187
sS'Low Fuel'
p5117
I25
sS'Lamar You'
p5118
I3
sS'See No'
p5119
I4
sS'Rafael Nadal'
p5120
I6
sS'Back Age'
p5121
I23
sS'Younger Brain'
p5122
I3
sS'Shawn Mendes'
p5123
I1
sS'Davis Marry'
p5124
I4
sS'Cliff Pennington'
p5125
I2
sS'New Deal'
p5126
I1
sS'John James'
p5127
I1
sS'Anger In'
p5128
I2
sS'Mike Maddux'
p5129
I2
sS'Quick End'
p5130
I1
sS'Off To'
p5131
I1
sS'El Nino'
p5132
I7
sS'Be Even'
p5133
I23
sS'Why Black'
p5134
I1
sS'Police Left'
p5135
I2
sS'Ryan House'
p5136
I3
sS'Back New'
p5137
I5
sS'China Southern'
p5138
I1
sS'Joe Girardi'
p5139
I1
sS'Why Clinton'
p5140
I2
sS'Bernie Last'
p5141
I12
sS'Lou Reed'
p5142
I4
sS'Antonio Campus'
p5143
I1
sS'Has Found'
p5144
I20
sS'Million From'
p5145
I3
sS'Jordan Reed'
p5146
I7
sS'Michael Coscia'
p5147
I2
sS'Fred Dalton'
p5148
I1
sS'Paris Masters'
p5149
I3
sS'Falls Short'
p5150
I1
sS'Shows Ben'
p5151
I1
sS'Go Back'
p5152
I7
sS'John Harbaugh'
p5153
I1
sS'Do Just'
p5154
I1
sS'Jared Leto'
p5155
I8
sS'Christopher Lloyd'
p5156
I4
sS'James Dean'
p5157
I4
sS'Party Turns'
p5158
I2
sS'Malcolm Turnbull'
p5159
I1
sS'Weather Service'
p5160
I1
sS'Gervais Will'
p5161
I1
sS'Rough Student'
p5162
I31
sS'Win Means'
p5163
I21
sS'Banks Will'
p5164
I1
sS'Say Singer'
p5165
I1
sS'Postal Service'
p5166
I79
sS'York Apple'
p5167
I1
sS'Even Park'
p5168
I1
sS'Paul Goes'
p5169
I6
sS'From Day'
p5170
I5
sS'Strain From'
p5171
I7
sS'Too Soon'
p5172
I1
sS'George Washington'
p5173
I109
sS'Maker Sees'
p5174
I1
sS'In Victory'
p5175
I4
sS'Apple Worker'
p5176
I1
sS'On Big'
p5177
I1
sS'Randolph Holder'
p5178
I21
sS'Royals Share'
p5179
I2
sS'Tyler Oakley'
p5180
I1
sS'Save Money'
p5181
I3
sS'Boxer Prichard'
p5182
I1
sS'Bad Blood'
p5183
I2
sS'Key Part'
p5184
I5
sS'Be More'
p5185
I49
sS'Shows You'
p5186
I2
sS'Charlotte Alter'
p5187
I7
sS'Low Can'
p5188
I3
sS'To Say'
p5189
I1
sS'Cover Taylor'
p5190
I52
sS'German Boards'
p5191
I28
sS'Counts Her'
p5192
I2
sS'How Can'
p5193
I3
sS'Wins Over'
p5194
I11
sS'Trump Can'
p5195
I55
sS'Single Day'
p5196
I5
sS'Other Ice'
p5197
I1
sS'More From'
p5198
I4
sS'Felix Diaz'
p5199
I12
sS'From Sheldon'
p5200
I1
sS'Purchase Flood'
p5201
I1
sS'Off Plane'
p5202
I8
sS'First Loss'
p5203
I14
sS'Angeles Police'
p5204
I1
sS'Storm Patricia'
p5205
I17
sS'Power Plants'
p5206
I4
sS'How George'
p5207
I9
sS'New Look'
p5208
I82
sS'Do To'
p5209
I2
sS'Clinton Courts'
p5210
I11
sS'See Angela'
p5211
I108
sS'Gold Near'
p5212
I1
sS'Richard Montgomery'
p5213
I1
sS'Station Marks'
p5214
I1
sS'American Bible'
p5215
I2
sS'Signs Gay'
p5216
I4
sS'Noah Hawley'
p5217
I1
sS'New Single'
p5218
I4
sS'Pay Falls'
p5219
I4
sS'Diego Coast'
p5220
I1
sS'Asia First'
p5221
I24
sS'Close Plants'
p5222
I12
sS'Tyler Ennis'
p5223
I1
sS'Sales To'
p5224
I3
sS'How Taylor'
p5225
I4
sS'All Tipping'
p5226
I1
sS'People Falling'
p5227
I34
sS'Kenya Wins'
p5228
I13
sS'People Do'
p5229
I10
sS'No Train'
p5230
I1
sS'Harper Victory'
p5231
I1
sS'Frank Bruni'
p5232
I498
sS'Hails From'
p5233
I8
sS'Hague Court'
p5234
I4
sS'Bud Black'
p5235
I53
sS'Max Scherzer'
p5236
I1
sS'Be Tone'
p5237
I6
sS'Paul Ebert'
p5238
I5
sS'Brown Royalty'
p5239
I3
sS'More White'
p5240
I49
sS'Red Tape'
p5241
I2
sS'Sarah Silverman'
p5242
I43
sS'Public Search'
p5243
I4
sS'Student Loan'
p5244
I1
sS'You From'
p5245
I1
sS'Luis Suarez'
p5246
I1
sS'Bank To'
p5247
I24
sS'Alicia Keys'
p5248
I15
sS'Turns Holiday'
p5249
I1
sS'Nina In'
p5250
I2
sS'Face New'
p5251
I15
sS'Street Metro'
p5252
I1
sS'Green Bay'
p5253
I99
sS'Score Early'
p5254
I2
sS'Getting Back'
p5255
I3
sS'Harm Than'
p5256
I5
sS'Spike In'
p5257
I1
sS'Adams Just'
p5258
I4
sS'Lafayette Square'
p5259
I1
sS'America Has'
p5260
I8
sS'Becton Dickson'
p5261
I1
sS'All You'
p5262
I16
sS'Ryan Adams'
p5263
I5
sS'Salmon May'
p5264
I30
sS'India Over'
p5265
I2
sS'In Fox'
p5266
I1
sS'Curt Schilling'
p5267
I1
sS'New Life'
p5268
I9
sS'Wins Big'
p5269
I1
sS'Miranda Lambert'
p5270
I14
sS'Must Go'
p5271
I12
sS'Too Hard'
p5272
I35
sS'Angry Men'
p5273
I2
sS'Well Soon'
p5274
I10
sS'Prince George'
p5275
I68
sS'Mark Ruffalo'
p5276
I8
sS'Marco Estrada'
p5277
I3
sS'Prichard Colon'
p5278
I2
sS'Martell Webster'
p5279
I5
sS'People Like'
p5280
I1
sS'No Threat'
p5281
I7
sS'Second World'
p5282
I56
sS'Selena Gomez'
p5283
I134
sS'Fines Dry'
p5284
I20
sS'Apple Loop'
p5285
I6
sS'In Real'
p5286
I118
sS'Push On'
p5287
I1
sS'Warm Fall'
p5288
I1
sS'Will Hillary'
p5289
I36
sS'Gun Found'
p5290
I7
sS'Urban Water'
p5291
I1
sS'Drop Than'
p5292
I4
sS'Why Bradley'
p5293
I1
sS'Jonathan Toews'
p5294
I1
sS'Dez Bryant'
p5295
I8
sS'Charles Schulz'
p5296
I2
sS'Sunday Shows'
p5297
I2
sS'In Case'
p5298
I8
sS'Has Ben'
p5299
I13
sS'In Cash'
p5300
I1
sS'Hank Aaron'
p5301
I2
sS'Price In'
p5302
I1
sS'Disney Short'
p5303
I1
sS'Joan Lunden'
p5304
I1
sS'Profit But'
p5305
I1
sS'East Heads'
p5306
I69
sS'States Go'
p5307
I1
sS'Clock Back'
p5308
I16
sS'To Pipe'
p5309
I3
sS'Later Than'
p5310
I2
sS'Pistorius Will'
p5311
I3
sS'Mark Still'
p5312
I1
sS'Florida State'
p5313
I12
sS'Why Trump'
p5314
I13
sS'Kinder Morgan'
p5315
I111
sS'Lamar Odom'
p5316
I497
sS'Ryan On'
p5317
I1
sS'New Light'
p5318
I1
sS'How Brands'
p5319
I1
sS'Drop Cable'
p5320
I1
sS'New Poll'
p5321
I7
sS'Elizabeth Holmes'
p5322
I7
sS'Ho Chi'
p5323
I9
sS'Over Music'
p5324
I1
sS'Doctor From'
p5325
I48
sS'Africa Heading'
p5326
I1
sS'Suing Warner'
p5327
I50
sS'Big Beer'
p5328
I4
sS'In Livermore'
p5329
I1
sS'In Shaw'
p5330
I6
sS'Why Apple'
p5331
I25
sS'New Jersey'
p5332
I107
sS'Lions Will'
p5333
I1
sS'App Gains'
p5334
I2
sS'Stock Price'
p5335
I2
sS'West Side'
p5336
I2
sS'Off Hard'
p5337
I13
sS'Tempe Town'
p5338
I1
sS'Real Lou'
p5339
I4
sS'Over Germany'
p5340
I14
sS'Record High'
p5341
I1
sS'My New'
p5342
I1
sS'Still See'
p5343
I2
sS'Lab Shows'
p5344
I1
sS'Holmes Goes'
p5345
I4
sS'Fine Over'
p5346
I32
sS'Apple Has'
p5347
I1
sS'Jefferson Jackson'
p5348
I10
sS'Julian Edelman'
p5349
I2
sS'Josh Ritter'
p5350
I21
sS'Delta Force'
p5351
I2
sS'Student Jimmy'
p5352
I6
sS'Alec Cooke'
p5353
I1
sS'Round Syria'
p5354
I5
sS'Went Too'
p5355
I2
sS'Abraham Lincoln'
p5356
I97
sS'David Blatt'
p5357
I1
sS'Street Must'
p5358
I34
sS'Like Bush'
p5359
I1
sS'Bills First'
p5360
I1
sS'On Jersey'
p5361
I1
sS'Won Over'
p5362
I9
sS'All Sides'
p5363
I25
sS'China Sales'
p5364
I24
sS'Down Bali'
p5365
I3
sS'Michael Bennett'
p5366
I8
sS'Mosely Win'
p5367
I1
sS'Show Horse'
p5368
I6
sS'In Space'
p5369
I12
sS'Cam Heyward'
p5370
I4
sS'People Over'
p5371
I2
sS'Sheldon Richardson'
p5372
I2
sS'Other Hand'
p5373
I8
sS'Life First'
p5374
I19
sS'Case Ask'
p5375
I2
sS'Can Still'
p5376
I17
sS'French Mayor'
p5377
I2
sS'Eli Manning'
p5378
I22
sS'Art Matters'
p5379
I139
sS'Black Dress'
p5380
I1
sS'How Life'
p5381
I2
sS'Sam Mendes'
p5382
I1
sS'March Crimes'
p5383
I1
sS'During Hunt'
p5384
I1
sS'Numbers Drop'
p5385
I3
sS'In April'
p5386
I2
sS'Hire More'
p5387
I4
sS'Near Rutgers'
p5388
I1
sS'Eli Lilly'
p5389
I1
sS'Warren Buffett'
p5390
I62
sS'Ericsson Profit'
p5391
I6
sS'Safe In'
p5392
I1
sS'Santa Clara'
p5393
I4
sS'Lawrence Pee'
p5394
I5
sS'During Old'
p5395
I3
sS'Zuckerberg Courts'
p5396
I20
sS'Show Runner'
p5397
I11
sS'Veil Little'
p5398
I27
sS'He Must'
p5399
I1
sS'East Harlem'
p5400
I110
sS'How China'
p5401
I25
sS'Cooler Than'
p5402
I47
sS'Takes Off'
p5403
I41
sS'Wilson Europe'
p5404
I9
sS'Stocks Gain'
p5405
I43
sS'Magic Star'
p5406
I2
sS'May End'
p5407
I42
sS'Will End'
p5408
I5
sS'Blind People'
p5409
I3
sS'Eric Cantor'
p5410
I3
sS'Still Wear'
p5411
I16
sS'Phil Mickelson'
p5412
I1
sS'Bear Hunt'
p5413
I3
sS'Everett Golson'
p5414
I3
sS'Treat Daily'
p5415
I3
sS'Jeff Koons'
p5416
I55
sS'Over Beck'
p5417
I2
sS'Trump Tower'
p5418
I3
sS'Kick Off'
p5419
I67
sS'Bridge List'
p5420
I39
sS'Ryan Will'
p5421
I13
sS'Jerry Sandusky'
p5422
I4
sS'Why Nadia'
p5423
I1
sS'New Brunswick'
p5424
I3
sS'Pierre Trudeau'
p5425
I1
sS'Sit More'
p5426
I1
sS'First President'
p5427
I2
sS'Has Been'
p5428
I119
sS'Paula Deen'
p5429
I5
sS'Rick Perry'
p5430
I17
sS'Coach Jim'
p5431
I1
sS'Guitar Hero'
p5432
I2
sS'How Bull'
p5433
I2
sS'Never Speak'
p5434
I5
sS'Will Pick'
p5435
I1
sS'Angeles Schools'
p5436
I8
sS'Senate Race'
p5437
I22
sS'Percy Harvin'
p5438
I2
sS'Media Rides'
p5439
I18
sS'From Russian'
p5440
I12
sS'Price Falls'
p5441
I3
sS'Jimmy Kimmel'
p5442
I170
sS'Judge Warns'
p5443
I3
sS'Hill Sunday'
p5444
I2
sS'Major League'
p5445
I13
sS'New Son'
p5446
I1
sS'Off Monday'
p5447
I1
sS'Merck Profit'
p5448
I3
sS'From Ryan'
p5449
I1
sS'Sports Games'
p5450
I4
sS'Waggoner Ranch'
p5451
I21
sS'Cancer Risk'
p5452
I5
sS'Clinton Lawyer'
p5453
I8
sS'Quick Ways'
p5454
I2
sS'Rock In'
p5455
I1
sS'Over Valdez'
p5456
I4
sS'House Hunting'
p5457
I132
sS'Other Nations'
p5458
I7
sS'Germaine Greer'
p5459
I37
sS'To Save'
p5460
I1
sS'China Coke'
p5461
I1
sS'Ran Down'
p5462
I1
sS'Brad Stevens'
p5463
I1
sS'Sean Payton'
p5464
I2
sS'Williams Stops'
p5465
I1
sS'Mayor Rahm'
p5466
I7
sS'Shake Shack'
p5467
I77
sS'Games Alter'
p5468
I1
sS'Bieber Has'
p5469
I1
sS'Halt Fleet'
p5470
I22
sS'Red Zone'
p5471
I45
sS'Cecily Strong'
p5472
I8
sS'Prince Harry'
p5473
I10
sS'Surface Mini'
p5474
I4
sS'Black Bear'
p5475
I1
sS'Arab Spring'
p5476
I3
sS'Dickstein Shapiro'
p5477
I1
sS'Right Way'
p5478
I2
sS'Worst Kind'
p5479
I1
sS'Face My'
p5480
I5
sS'Wally Weitz'
p5481
I10
sS'John Stamos'
p5482
I4
sS'Carson Inches'
p5483
I2
sS'Bump From'
p5484
I1
sS'Dallas Police'
p5485
I1
sS'Wooden Stake'
p5486
I4
sS'Lehigh Valley'
p5487
I1
sS'Keep Winning'
p5488
I2
sS'Seda Valley'
p5489
I2
sS'Michael Scherer'
p5490
I77
sS'Can Cost'
p5491
I2
sS'Arnold Klein'
p5492
I5
sS'Richard Sherman'
p5493
I1
sS'From Milan'
p5494
I20
sS'Justin Williams'
p5495
I1
sS'Amari Cooper'
p5496
I1
sS'Call Off'
p5497
I3
sS'Top Model'
p5498
I10
sS'Trudeau Win'
p5499
I22
sS'How Aldo'
p5500
I3
sS'Money Still'
p5501
I86
sS'Chris Young'
p5502
I3
sS'Elizabeth Warren'
p5503
I19
sS'Clinton Takes'
p5504
I4
sS'Meghan Edmonds'
p5505
I1
sS'Van Hollen'
p5506
I70
sS'Oregon Police'
p5507
I1
sS'Than Life'
p5508
I4
sS'Union Reach'
p5509
I5
sS'Off Coast'
p5510
I1
sS'Darrell Hazell'
p5511
I1
sS'Bode Well'
p5512
I1
sS'From All'
p5513
I25
sS'Small Victory'
p5514
I18
sS'Stops Them'
p5515
I3
sS'From North'
p5516
I15
sS'Leak From'
p5517
I15
sS'Boards More'
p5518
I8
sS'New Free'
p5519
I2
sS'Katy Steinmetz'
p5520
I92
sS'Andre Ethier'
p5521
I1
sS'Honey Study'
p5522
I14
sS'Like Jason'
p5523
I13
sS'Bench Kirk'
p5524
I1
sS'Buck Market'
p5525
I7
sS'Gun Ring'
p5526
I2
sS'Why King'
p5527
I1
sS'But Other'
p5528
I6
sS'Lot Like'
p5529
I1
sS'May Sue'
p5530
I3
sS'Takes Weight'
p5531
I5
sS'In Corona'
p5532
I6
sS'Spotted Off'
p5533
I3
sS'College Degree'
p5534
I1
sS'Mack Brown'
p5535
I2
sS'In Houston'
p5536
I16
sS'All Smiles'
p5537
I8
sS'Takes Pole'
p5538
I1
sS'Second Day'
p5539
I2
sS'In Apple'
p5540
I6
sS'Francisco May'
p5541
I5
sS'Schumer Push'
p5542
I2
sS'Sheryl Sandberg'
p5543
I27
sS'Chuck Schumer'
p5544
I13
sS'Powers Save'
p5545
I1
sS'High Cost'
p5546
I2
sS'Gabrielle Union'
p5547
I22
sS'Northern Tier'
p5548
I1
sS'Bill Cowher'
p5549
I1
sS'Hidden College'
p5550
I1
sS'Jersey Senate'
p5551
I13
sS'Andre Ellington'
p5552
I1
sS'Bath Iron'
p5553
I2
sS'Never See'
p5554
I1
sS'Geoffrey Marcy'
p5555
I75
sS'Keep Records'
p5556
I1
sS'In Simon'
p5557
I45
sS'Andreessen Sells'
p5558
I3
sS'Both May'
p5559
I1
sS'Seal Beach'
p5560
I1
sS'True Ace'
p5561
I2
sS'John Luther'
p5562
I10
sS'Pay Student'
p5563
I3
sS'Albany Will'
p5564
I9
sS'Be True'
p5565
I1
sS'Market Goes'
p5566
I3
sS'Adam Lambert'
p5567
I8
sS'Warm Winter'
p5568
I1
sS'Gun Storage'
p5569
I4
sS'Lake Worth'
p5570
I2
sS'Cool Seat'
p5571
I3
sS'Ford Profit'
p5572
I37
sS'Cost Us'
p5573
I1
sS'To Double'
p5574
I1
sS'Speaker Race'
p5575
I1
sS'Wage War'
p5576
I2
sS'Corey Coleman'
p5577
I1
sS'New Harry'
p5578
I2
sS'George Zimmer'
p5579
I1
sS'Beat Blue'
p5580
I20
sS'He May'
p5581
I14
sS'Elizabeth Nunez'
p5582
I13
sS'Serena Williams'
p5583
I29
sS'Bass Tones'
p5584
I29
sS'In Free'
p5585
I20
sS'In Lehigh'
p5586
I1
sS'Woodrow Wilson'
p5587
I2
sS'Johns Hopkins'
p5588
I36
sS'Bears Circle'
p5589
I1
sS'Cargo Ship'
p5590
I48
sS'Carlos Hyde'
p5591
I1
sS'Boise State'
p5592
I3
sS'Shows Promise'
p5593
I41
sS'Deal Wins'
p5594
I11
sS'Banks Come'
p5595
I13
sS'Woo Max'
p5596
I5
sS'Trudeau Takes'
p5597
I2
sS'Murphy Anderson'
p5598
I34
sS'Want New'
p5599
I2
sS'Kimmel How'
p5600
I2
sS'Near Syria'
p5601
I8
sS'Jake Bailey'
p5602
I8
sS'Middleton Wears'
p5603
I4
sS'Soon End'
p5604
I4
sS'But So'
p5605
I1
sS'Ronald Reagan'
p5606
I128
sS'Monday Night'
p5607
I4
sS'Share Many'
p5608
I2
sS'Come From'
p5609
I13
sS'Over High'
p5610
I1
sS'Martin Luther'
p5611
I3
sS'Small Cos'
p5612
I9
sS'Steven Cohen'
p5613
I2
sS'Do Like'
p5614
I7
sS'Will Pare'
p5615
I16
sS'Noelle Stevenson'
p5616
I51
sS'German Vice'
p5617
I1
sS'New Files'
p5618
I3
sS'Host Sudan'
p5619
I3
sS'City Star'
p5620
I1
sS'Kenworthy Comes'
p5621
I119
sS'City Kitchen'
p5622
I152
sS'Alex Be'
p5623
I1
sS'How Hillary'
p5624
I13
sS'Paul Clement'
p5625
I1
sS'Bud Light'
p5626
I3
sS'In South'
p5627
I2
sS'Hacker Threats'
p5628
I3
sS'Nathan Lane'
p5629
I5
sS'Miles Brock'
p5630
I2
sS'South Sudan'
p5631
I69
sS'Island Dies'
p5632
I8
sS'Francisco Victory'
p5633
I16
sS'Still Sees'
p5634
I1
sS'Trump Over'
p5635
I1
sS'Venus Williams'
p5636
I1
sS'Hair Just'
p5637
I1
sS'Noelle Frost'
p5638
I3
sS'Profit Drop'
p5639
I9
sS'Speaker Job'
p5640
I5
sS'Big Ben'
p5641
I1
sS'Courts Big'
p5642
I16
sS'Belinda Luscombe'
p5643
I175
sS'Bonds Rise'
p5644
I7
sS'Fallen Back'
p5645
I2
sS'Over Love'
p5646
I45
sS'Human Hands'
p5647
I1
sS'Has Learned'
p5648
I2
sS'Michael Wolf'
p5649
I35
stp5650
Rp5651
.