ccollections
Counter
p0
((dp1
S'Dallas Police'
p2
I1
sS'Baptist Church'
p3
I6
sS'Has Hubble'
p4
I2
sS'Has Day'
p5
I1
sS'Sheldon Silver'
p6
I56
sS'Rashad Jennings'
p7
I3
sS'Second Single'
p8
I1
sS'Major Gains'
p9
I2
sS'Maisie Williams'
p10
I1
sS'Golden Tate'
p11
I1
sS'Sanders Show'
p12
I92
sS'Lee Miller'
p13
I12
sS'John Giorno'
p14
I2
sS'Alice Park'
p15
I235
sS'James Snee'
p16
I1
sS'Alan Grier'
p17
I1
sS'Lisa Blatt'
p18
I1
sS'Blunt Will'
p19
I4
sS'Morgan Chase'
p20
I2
sS'Wilson Bridge'
p21
I2
sS'Mean Less'
p22
I3
sS'Tyra Banks'
p23
I1
sS'Meg Whitman'
p24
I95
sS'Us Off'
p25
I7
sS'Robert Griffin'
p26
I29
sS'Al Delvecchio'
p27
I2
sS'Drew Police'
p28
I5
sS'Stock Falls'
p29
I1
sS'Human Body'
p30
I5
sS'Aaron Rodgers'
p31
I117
sS'Andreessen Sells'
p32
I3
sS'High Price'
p33
I10
sS'Odom Off'
p34
I1
sS'Bruins Chris'
p35
I1
sS'Jacques Pepin'
p36
I19
sS'Jeanne Shaheen'
p37
I106
sS'Melinda Gates'
p38
I2
sS'Pierre Garcon'
p39
I4
sS'Reveal Body'
p40
I4
sS'John Koskinen'
p41
I1
sS'Second Home'
p42
I24
sS'Veto Powers'
p43
I1
sS'Brooklyn Man'
p44
I1
sS'Bond Women'
p45
I4
sS'Bank Records'
p46
I3
sS'Black Man'
p47
I2
sS'Tim Cook'
p48
I95
sS'More Black'
p49
I1
sS'Carson Gain'
p50
I1
sS'Earl Jones'
p51
I48
sS'Re Camera'
p52
I1
sS'Walter Gerken'
p53
I22
sS'New Study'
p54
I20
sS'Artist Jake'
p55
I8
sS'Edward Snowden'
p56
I9
sS'Stephen Harper'
p57
I6
sS'Crystal Ball'
p58
I9
sS'Jack Dorsey'
p59
I68
sS'Huge Taubman'
p60
I2
sS'Pound Falls'
p61
I5
sS'Jersey Sports'
p62
I2
sS'John Berger'
p63
I33
sS'Smith Slay'
p64
I49
sS'Colon Cancer'
p65
I1
sS'Home Loan'
p66
I2
sS'Randy Edsall'
p67
I1
sS'Strange Light'
p68
I1
sS'May Broaden'
p69
I8
sS'Bring Warm'
p70
I1
sS'Ron Wallace'
p71
I1
sS'College Campus'
p72
I74
sS'Red Line'
p73
I3
sS'New Top'
p74
I1
sS'Marcus Paige'
p75
I2
sS'Harry Reid'
p76
I70
sS'Sherlock Holmes'
p77
I58
sS'Fallen Officer'
p78
I6
sS'Love Child'
p79
I2
sS'Sue Board'
p80
I40
sS'Colorado Springs'
p81
I13
sS'Spell Doom'
p82
I2
sS'Olivia Newton'
p83
I5
sS'Deal Dings'
p84
I76
sS'Hurt Clinton'
p85
I30
sS'Parcel Race'
p86
I8
sS'Osbourn Park'
p87
I1
sS'Will Sue'
p88
I1
sS'Northern Virginia'
p89
I4
sS'Jeong Kwan'
p90
I9
sS'Notch Gain'
p91
I1
sS'Ports Widen'
p92
I4
sS'Michael Wolf'
p93
I35
sS'War Setting'
p94
I24
sS'Sam Bradford'
p95
I2
sS'New Music'
p96
I11
sS'Van Pelt'
p97
I2
sS'Tory Burch'
p98
I24
sS'Danny Boyle'
p99
I1
sS'Billy Bob'
p100
I2
sS'Marco Rubio'
p101
I318
sS'Holmes Speaks'
p102
I4
sS'Alter Party'
p103
I17
sS'Study Shows'
p104
I16
sS'Mike Myers'
p105
I2
sS'Army May'
p106
I23
sS'Europe Buys'
p107
I9
sS'Chris Kelly'
p108
I7
sS'Chandler Jones'
p109
I1
sS'Say Blue'
p110
I10
sS'Fannie Mae'
p111
I4
sS'Ben Ginsberg'
p112
I9
sS'Frieze Kicks'
p113
I6
sS'Marks November'
p114
I1
sS'Liana Vines'
p115
I2
sS'Jake Arrieta'
p116
I23
sS'Faro Ship'
p117
I15
sS'Slay Adele'
p118
I49
sS'Record Holiday'
p119
I4
sS'Hand Pope'
p120
I21
sS'Prime Music'
p121
I2
sS'Big Number'
p122
I27
sS'Phil Mickelson'
p123
I1
sS'Andreessen Horowitz'
p124
I24
sS'Jones Said'
p125
I5
sS'Counter North'
p126
I2
sS'Dow Gains'
p127
I1
sS'Cables Has'
p128
I2
sS'Say Clinton'
p129
I24
sS'Takes Bryan'
p130
I1
sS'Police Say'
p131
I63
sS'Rode Tea'
p132
I6
sS'Juan Gabriel'
p133
I43
sS'Sloane Crosley'
p134
I22
sS'Getting Rich'
p135
I21
sS'Them Fail'
p136
I6
sS'Mike Evans'
p137
I1
sS'Tell Us'
p138
I8
sS'China Will'
p139
I2
sS'Apple Magic'
p140
I2
sS'Nicholas Sparks'
p141
I16
sS'Quentin Tarantino'
p142
I34
sS'Donna Karan'
p143
I1
sS'Net Ice'
p144
I2
sS'Cool Off'
p145
I2
sS'Mae Loan'
p146
I1
sS'Tea Party'
p147
I19
sS'Kelly Tisdale'
p148
I1
sS'Ryan Fitzpatrick'
p149
I4
sS'Zack Greinke'
p150
I13
sS'Julianna Snow'
p151
I2
sS'Emma Stone'
p152
I10
sS'Forget Cecil'
p153
I1
sS'Has Washington'
p154
I2
sS'Student Has'
p155
I1
sS'Bertie Ahern'
p156
I1
sS'Drew Brees'
p157
I38
sS'London Mayor'
p158
I1
sS'Bay Bridge'
p159
I3
sS'Canada New'
p160
I10
sS'Fred Jackson'
p161
I4
sS'Be Gone'
p162
I1
sS'State Keep'
p163
I1
sS'Tyler Johnson'
p164
I1
sS'Nicole Renee'
p165
I1
sS'School Officer'
p166
I1
sS'Plane Home'
p167
I94
sS'Old Car'
p168
I2
sS'Paul Haggis'
p169
I1
sS'Kennedy Center'
p170
I83
sS'Off First'
p171
I67
sS'New Life'
p172
I9
sS'Gerald Gross'
p173
I17
sS'Israel Bars'
p174
I8
sS'Luke Bryan'
p175
I4
sS'Andy Warhol'
p176
I2
sS'Home Hillary'
p177
I3
sS'Rubio Grow'
p178
I14
sS'Nate Darling'
p179
I1
sS'Eugenie Bouchard'
p180
I32
sS'Jordan Spieth'
p181
I2
sS'Service Wins'
p182
I1
sS'Ends Model'
p183
I1
sS'East Hollywood'
p184
I4
sS'End Key'
p185
I11
sS'Edmund Burke'
p186
I1
sS'Island Say'
p187
I2
sS'Ends Key'
p188
I6
sS'City App'
p189
I41
sS'Everett Golson'
p190
I3
sS'Ted Koppel'
p191
I5
sS'New Blood'
p192
I3
sS'Sam Frizell'
p193
I1
sS'Be Shown'
p194
I1
sS'Trainor Cluck'
p195
I1
sS'Ted Hefter'
p196
I2
sS'Stock Lower'
p197
I7
sS'Record Level'
p198
I2
sS'Shore Star'
p199
I3
sS'Dalton Thompson'
p200
I1
sS'Close Stores'
p201
I5
sS'Huge Spike'
p202
I1
sS'Water School'
p203
I20
sS'Georgia Student'
p204
I4
sS'Range Strike'
p205
I5
sS'Mean Weight'
p206
I1
sS'Case Study'
p207
I3
sS'Chris Thompson'
p208
I5
sS'Old Age'
p209
I33
sS'Martin Zimmerman'
p210
I13
sS'Clinton Tell'
p211
I3
sS'Stars Martin'
p212
I13
sS'London Hedge'
p213
I11
sS'Dorsey Has'
p214
I5
sS'Blue Marble'
p215
I3
sS'Lowers State'
p216
I1
sS'Jim Cramer'
p217
I1
sS'Adam Levine'
p218
I122
sS'Dwayne Harris'
p219
I18
sS'New Plant'
p220
I2
sS'New Fall'
p221
I8
sS'New Tools'
p222
I6
sS'Trudeau Victory'
p223
I2
sS'Flash Orange'
p224
I1
sS'Michael Bierut'
p225
I1
sS'Port Deal'
p226
I21
sS'Corn Maze'
p227
I1
sS'Kim Richards'
p228
I5
sS'Check Smoke'
p229
I1
sS'Richard Nixon'
p230
I9
sS'George Mueller'
p231
I81
sS'Sum House'
p232
I2
sS'Tammy Baldwin'
p233
I24
sS'Corey Perry'
p234
I1
sS'First Read'
p235
I2
sS'Light Show'
p236
I176
sS'Graham Gano'
p237
I1
sS'Oscar Mayer'
p238
I7
sS'Wind Power'
p239
I2
sS'Dad Joe'
p240
I2
sS'Kevin Towers'
p241
I1
sS'Jose Almeida'
p242
I4
sS'Newton John'
p243
I5
sS'House Near'
p244
I6
sS'Katy Steinmetz'
p245
I92
sS'Back House'
p246
I9
sS'Million War'
p247
I12
sS'Martha Poulter'
p248
I65
sS'Chris Brown'
p249
I4
sS'Folk Singer'
p250
I12
sS'Francis Owusu'
p251
I6
sS'May Harm'
p252
I2
sS'Silver Case'
p253
I12
sS'Store Top'
p254
I4
sS'Deep Hole'
p255
I13
sS'Banco Santander'
p256
I3
sS'Test Driver'
p257
I4
sS'Flaming Lips'
p258
I3
sS'Norfolk Southern'
p259
I5
sS'Larry Nance'
p260
I1
sS'Walter Mondale'
p261
I5
sS'Honeywell Profit'
p262
I3
sS'Paul Murray'
p263
I15
sS'Son Buys'
p264
I1
sS'Young Nephew'
p265
I35
sS'Clerk Kim'
p266
I4
sS'Mini Pope'
p267
I1
sS'Hard Money'
p268
I1
sS'Thomas Stone'
p269
I1
sS'App Smart'
p270
I105
sS'Cam Newton'
p271
I9
sS'George Lucas'
p272
I60
sS'Shirley Jones'
p273
I17
sS'William Gay'
p274
I1
sS'High End'
p275
I1
sS'First Large'
p276
I27
sS'Vice Media'
p277
I21
sS'Carolina Shore'
p278
I1
sS'Yoko Ono'
p279
I71
sS'Stock Gains'
p280
I2
sS'Record Storm'
p281
I15
sS'Cook Said'
p282
I11
sS'Life Story'
p283
I7
sS'Lindsay Graham'
p284
I1
sS'James Jones'
p285
I1
sS'Marco Moment'
p286
I3
sS'Double Life'
p287
I20
sS'Story Line'
p288
I6
sS'Boxer Mike'
p289
I24
sS'Alvin Bronstein'
p290
I16
sS'Saunders Dies'
p291
I5
sS'Louis Tomlinson'
p292
I119
sS'Ask Well'
p293
I72
sS'Joan Davidson'
p294
I8
sS'Coach Pat'
p295
I1
sS'Jay Cutler'
p296
I1
sS'Kenya Wins'
p297
I13
sS'Austin Rivers'
p298
I4
sS'Stephen Colbert'
p299
I146
sS'Will Bring'
p300
I1
sS'Dry Autumn'
p301
I1
sS'Kourtney Kardashian'
p302
I8
sS'Every Day'
p303
I6
sS'Timothy Egan'
p304
I3
sS'Doing Fine'
p305
I1
sS'Star Speaks'
p306
I70
sS'Michael Wilbon'
p307
I1
sS'Yellen Sees'
p308
I1
sS'Takes Top'
p309
I1
sS'Will Blow'
p310
I99
sS'Falls Shy'
p311
I4
sS'East Coast'
p312
I20
sS'Todd Richards'
p313
I2
sS'Gwen Stefani'
p314
I17
sS'Sacramento Mayor'
p315
I5
sS'Phil Lesh'
p316
I54
sS'Asia First'
p317
I24
sS'Lover Heads'
p318
I1
sS'Geraldine Brooks'
p319
I10
sS'Pine Cone'
p320
I30
sS'Sidney Blumenthal'
p321
I20
sS'East Side'
p322
I9
sS'Hank Aaron'
p323
I2
sS'Bradley Beal'
p324
I33
sS'Ranger School'
p325
I2
sS'Sees Better'
p326
I1
sS'Will Fail'
p327
I2
sS'Bull Riding'
p328
I2
sS'New Friend'
p329
I1
sS'Black Roots'
p330
I6
sS'Tavis Smiley'
p331
I10
sS'David Dinkins'
p332
I6
sS'Lewy Body'
p333
I4
sS'Kim Davis'
p334
I14
sS'Power Trio'
p335
I2
sS'Carly Rae'
p336
I1
sS'Walter Johnson'
p337
I2
sS'Bay Area'
p338
I25
sS'George Bell'
p339
I53
sS'Bring Hollywood'
p340
I2
sS'Borrow May'
p341
I7
sS'Bill Simmons'
p342
I64
sS'Start Falling'
p343
I1
sS'Greek Fort'
p344
I1
sS'Has Marco'
p345
I1
sS'Profit Warning'
p346
I5
sS'Dustin Poirier'
p347
I3
sS'Hugh Freeze'
p348
I2
sS'Calvin Johnson'
p349
I1
sS'Goes Back'
p350
I6
sS'Mainland China'
p351
I5
sS'Aid Assad'
p352
I9
sS'Brooklyn Street'
p353
I20
sS'Ken Whisenhunt'
p354
I17
sS'Fox Rolls'
p355
I10
sS'Beat Blue'
p356
I20
sS'Rooney Mara'
p357
I23
sS'Stacy Schiff'
p358
I74
sS'Clinton Super'
p359
I1
sS'Kathleen Matthews'
p360
I1
sS'John Grisham'
p361
I15
sS'Save Jamaica'
p362
I17
sS'Brandon Scherff'
p363
I2
sS'World Powers'
p364
I9
sS'New Hope'
p365
I24
sS'League Deal'
p366
I8
sS'Christopher Sieber'
p367
I2
sS'Kansas State'
p368
I1
sS'Times Taylor'
p369
I2
sS'Ed Walker'
p370
I1
sS'Southern City'
p371
I1
sS'Than Later'
p372
I10
sS'Stands Pat'
p373
I1
sS'Million Man'
p374
I2
sS'Bridge Getting'
p375
I109
sS'Big City'
p376
I36
sS'Never Seen'
p377
I1
sS'Born White'
p378
I2
sS'Old School'
p379
I19
sS'Molinaro Dies'
p380
I1
sS'Talk Hillary'
p381
I4
sS'Key Canada'
p382
I7
sS'Patrick Harris'
p383
I43
sS'Ryan Kerrigan'
p384
I1
sS'West Takes'
p385
I8
sS'Flint Hill'
p386
I1
sS'House Speaker'
p387
I145
sS'Jersey City'
p388
I7
sS'World Press'
p389
I2
sS'Morgan Near'
p390
I19
sS'Young Man'
p391
I7
sS'Philip Rivers'
p392
I3
sS'Tony Blair'
p393
I40
sS'Speaker Post'
p394
I10
sS'Tom Brady'
p395
I91
sS'Ben Olsen'
p396
I1
sS'Clinton Wins'
p397
I52
sS'San Bernardino'
p398
I2
sS'Hewlett Packard'
p399
I60
sS'Patricia Canning'
p400
I4
sS'Poland Hands'
p401
I1
sS'China Burns'
p402
I6
sS'Steven Preston'
p403
I1
sS'Keenan Reynolds'
p404
I1
sS'Kirstie Alley'
p405
I4
sS'Brad Paisley'
p406
I2
sS'Clinton Has'
p407
I3
sS'Street Must'
p408
I34
sS'Bryan Cranston'
p409
I5
sS'Show Jimmy'
p410
I1
sS'Kardashian West'
p411
I6
sS'Short Seller'
p412
I22
sS'John Cook'
p413
I3
sS'Sammy Watkins'
p414
I3
sS'Brian Mitchell'
p415
I1
sS'Real Madrid'
p416
I1
sS'Back Pain'
p417
I32
sS'Pass Fiscal'
p418
I2
sS'Sara Be'
p419
I1
sS'Face Big'
p420
I2
sS'Ford Falls'
p421
I1
sS'Simon Cowell'
p422
I8
sS'Arab Spring'
p423
I3
sS'Hard Life'
p424
I3
sS'Darlene Love'
p425
I23
sS'Brain Cake'
p426
I30
sS'Lowers Range'
p427
I1
sS'Sandy Alderson'
p428
I5
sS'Mike Nichols'
p429
I11
sS'Holiday Plane'
p430
I2
sS'John Wall'
p431
I12
sS'Town Lake'
p432
I1
sS'William Bring'
p433
I2
sS'Brown Royalty'
p434
I3
sS'Sanders Hires'
p435
I4
sS'Jim Bob'
p436
I3
sS'Emiliano Grillo'
p437
I4
sS'Letters Expose'
p438
I5
sS'Stone Bridge'
p439
I9
sS'Channing Tatum'
p440
I2
sS'Say Aid'
p441
I3
sS'Ryan Stakes'
p442
I22
sS'Temple Mount'
p443
I19
sS'Enter West'
p444
I1
sS'Roman Mars'
p445
I1
sS'Abbey Green'
p446
I1
sS'Carmelo Anthony'
p447
I19
sS'Lucy Jones'
p448
I1
sS'Charles Herbert'
p449
I27
sS'Jae Crowder'
p450
I2
sS'Randy Quaid'
p451
I7
sS'Lauren Groff'
p452
I28
sS'Kerry Plan'
p453
I1
sS'Keep Ryan'
p454
I1
sS'First Town'
p455
I6
sS'Robin Williams'
p456
I83
sS'Mayor Bowser'
p457
I10
sS'App Store'
p458
I16
sS'Fort Greene'
p459
I63
sS'New Show'
p460
I115
sS'Zone Shows'
p461
I1
sS'Wild Wings'
p462
I1
sS'Ann Dowd'
p463
I37
sS'Gomez Shows'
p464
I72
sS'Stephen King'
p465
I15
sS'Paul Singer'
p466
I13
sS'Kicks Off'
p467
I12
sS'Herald Public'
p468
I9
sS'Phoenix Lake'
p469
I1
sS'Black Churches'
p470
I8
sS'May Aid'
p471
I32
sS'Canada Court'
p472
I1
sS'Gus Kenworthy'
p473
I123
sS'Carnegie Hall'
p474
I43
sS'Elaine May'
p475
I11
sS'Adam Gray'
p476
I2
sS'Jeremiah Ratliff'
p477
I5
sS'Rock Stars'
p478
I16
sS'Win World'
p479
I22
sS'Off Friday'
p480
I1
sS'Better Job'
p481
I7
sS'Garrett Temple'
p482
I2
sS'Tell Money'
p483
I1
sS'Drake Dance'
p484
I6
sS'Yu Darvish'
p485
I1
sS'Women Found'
p486
I6
sS'Pick Matt'
p487
I5
sS'San Antonio'
p488
I4
sS'Jacob Riis'
p489
I10
sS'Fargo Deal'
p490
I15
sS'Early November'
p491
I1
sS'State Aid'
p492
I14
sS'South Sea'
p493
I6
sS'Uchimura Wins'
p494
I19
sS'Roger Cohen'
p495
I92
sS'Criss Angel'
p496
I1
sS'Soon Reveal'
p497
I24
sS'Ramon Sessions'
p498
I1
sS'Rose Less'
p499
I1
sS'Ask Apple'
p500
I2
sS'Record Numbers'
p501
I1
sS'Richard Gasquet'
p502
I1
sS'Hannah Davis'
p503
I4
sS'Steven Matz'
p504
I14
sS'Perry Win'
p505
I1
sS'High Officer'
p506
I4
sS'New High'
p507
I1
sS'Will Be'
p508
I20
sS'Hugo Boss'
p509
I2
sS'Child Dies'
p510
I2
sS'King Sunny'
p511
I25
sS'New Drought'
p512
I95
sS'James Bible'
p513
I55
sS'Gore Vidal'
p514
I24
sS'North Carolina'
p515
I55
sS'Good Weather'
p516
I5
sS'Marcus Luttrell'
p517
I8
sS'Laurie Anderson'
p518
I18
sS'Penn State'
p519
I11
sS'Army Aid'
p520
I1
sS'Dark Side'
p521
I61
sS'Pat Woodell'
p522
I31
sS'Billie Holiday'
p523
I3
sS'Herbert Schuch'
p524
I2
sS'World Has'
p525
I4
sS'Donna Edwards'
p526
I3
sS'Sees New'
p527
I3
sS'Safe Harbor'
p528
I59
sS'Carson Catching'
p529
I4
sS'Charles Barkley'
p530
I9
sS'Regal Look'
p531
I3
sS'Clinton Aide'
p532
I34
sS'North Pole'
p533
I94
sS'Andy Koenig'
p534
I24
sS'Kendrick Lamar'
p535
I10
sS'Start Matt'
p536
I1
sS'No Better'
p537
I2
sS'Public Battle'
p538
I9
sS'Gay Men'
p539
I9
sS'Reno Sees'
p540
I66
sS'Ken Jeong'
p541
I11
sS'Richard Hanna'
p542
I1
sS'Ralph Laura'
p543
I1
sS'Isabel Allende'
p544
I56
sS'Sick Son'
p545
I5
sS'King Deal'
p546
I18
sS'Surface Pro'
p547
I11
sS'Will Seek'
p548
I13
sS'David Justice'
p549
I3
sS'Spencer Stone'
p550
I17
sS'New Apple'
p551
I47
sS'Mess Left'
p552
I8
sS'May Be'
p553
I111
sS'Dow Jones'
p554
I34
sS'Jim Palmer'
p555
I1
sS'Black Hole'
p556
I10
sS'Island Home'
p557
I16
sS'Than Storm'
p558
I5
sS'New Short'
p559
I1
sS'Pal Billy'
p560
I1
sS'Ireland Signs'
p561
I4
sS'Jason Garrett'
p562
I1
sS'Found Safe'
p563
I11
sS'Hillary Clinton'
p564
I722
sS'New Star'
p565
I7
sS'Too Big'
p566
I25
sS'Wade Davis'
p567
I2
sS'Line Army'
p568
I14
sS'Apple Sells'
p569
I1
sS'Patrick Kane'
p570
I12
sS'Linda Hamilton'
p571
I73
sS'Al Golden'
p572
I4
sS'Alex Gordon'
p573
I5
sS'Hush Money'
p574
I1
sS'Be Free'
p575
I2
sS'Love Locks'
p576
I14
sS'Flash Season'
p577
I1
sS'Gun Bill'
p578
I13
sS'Has Brought'
p579
I14
sS'May Go'
p580
I2
sS'New Credit'
p581
I1
sS'Senior Day'
p582
I1
sS'George Brett'
p583
I5
sS'Andy Kaufman'
p584
I1
sS'Trial May'
p585
I9
sS'Derek Hough'
p586
I5
sS'Old City'
p587
I16
sS'Apple Car'
p588
I1
sS'Back Home'
p589
I12
sS'Torrey Smith'
p590
I2
sS'Leto Heads'
p591
I1
sS'Go Down'
p592
I2
sS'Jerry Kill'
p593
I9
sS'Money Can'
p594
I1
sS'Student Test'
p595
I2
sS'Pitt Moment'
p596
I1
sS'Super Spieth'
p597
I1
sS'Sharon Stone'
p598
I3
sS'Evan Peters'
p599
I1
sS'President Wins'
p600
I1
sS'Glass Vessel'
p601
I7
sS'Too Strong'
p602
I16
sS'Star Jenni'
p603
I1
sS'Leader Kicks'
p604
I2
sS'Oscar Pistorius'
p605
I24
sS'Links Rise'
p606
I1
sS'Cox Signs'
p607
I3
sS'Winfrey Takes'
p608
I5
sS'Stefani Sing'
p609
I1
sS'Brandon Marshall'
p610
I6
sS'Charlie Munger'
p611
I1
sS'Matt Jones'
p612
I3
sS'Uber Driver'
p613
I91
sS'Duggar Promise'
p614
I4
sS'Edward Niedermeyer'
p615
I1
sS'Art Service'
p616
I1
sS'Do Right'
p617
I3
sS'Swift Files'
p618
I1
sS'Ryan May'
p619
I17
sS'Record Button'
p620
I16
sS'Red Eye'
p621
I1
sS'New Ways'
p622
I80
sS'James Wins'
p623
I43
sS'Polanski Case'
p624
I1
sS'So Close'
p625
I24
sS'Friends Say'
p626
I1
sS'Kylie Minogue'
p627
I1
sS'John James'
p628
I1
sS'Player Go'
p629
I11
sS'Rough Day'
p630
I2
sS'Maryland Senate'
p631
I42
sS'Jeffrey Ettinger'
p632
I1
sS'Jade Rush'
p633
I3
sS'Real Reason'
p634
I3
sS'Real Boss'
p635
I2
sS'Uber Rides'
p636
I3
sS'Kyle Navin'
p637
I1
sS'Gave Him'
p638
I74
sS'Apple Net'
p639
I1
sS'Plant Worker'
p640
I13
sS'Flash Flood'
p641
I9
sS'Than Short'
p642
I1
sS'Quiet Car'
p643
I6
sS'Perry Buys'
p644
I2
sS'Justin Turner'
p645
I9
sS'Sunday Night'
p646
I5
sS'Love May'
p647
I1
sS'Jimmy Carter'
p648
I29
sS'New Rains'
p649
I1
sS'Jimmy Roberts'
p650
I24
sS'Gold Down'
p651
I1
sS'Will Never'
p652
I1
sS'Thomas Gilbert'
p653
I11
sS'Lowers Kenya'
p654
I2
sS'Loud Manly'
p655
I1
sS'Mimi Leder'
p656
I14
sS'Andrew Hunter'
p657
I1
sS'Off East'
p658
I7
sS'Storms Off'
p659
I1
sS'New Camera'
p660
I3
sS'Ill Nurse'
p661
I4
sS'Stapleton Shine'
p662
I5
sS'Jen Shyu'
p663
I37
sS'Paul Rudd'
p664
I54
sS'New Bay'
p665
I1
sS'No Plan'
p666
I1
sS'Im Gone'
p667
I1
sS'Read Hillary'
p668
I12
sS'Dale Carnegie'
p669
I2
sS'Claude Julien'
p670
I3
sS'Derek Carr'
p671
I2
sS'Morales Wins'
p672
I9
sS'Ranks China'
p673
I3
sS'Baltimore City'
p674
I10
sS'Gum Wall'
p675
I47
sS'Laverne Cox'
p676
I7
sS'Top End'
p677
I6
sS'Black Student'
p678
I8
sS'Canada Head'
p679
I9
sS'Media Stock'
p680
I2
sS'Han Solo'
p681
I1
sS'Tatum Will'
p682
I1
sS'Greg Ip'
p683
I11
sS'Job Torey'
p684
I3
sS'Wins Burma'
p685
I4
sS'Karla Kardashian'
p686
I7
sS'Will Shake'
p687
I1
sS'Apple Stores'
p688
I1
sS'Billy Beane'
p689
I1
sS'Stay Home'
p690
I1
sS'Suite Must'
p691
I8
sS'Andre Roberts'
p692
I2
sS'Slain Boynton'
p693
I1
sS'Queen Hillary'
p694
I44
sS'Bush White'
p695
I18
sS'Jimmy Hubert'
p696
I6
sS'Lynn Harrell'
p697
I24
sS'Way Less'
p698
I2
sS'York Schools'
p699
I24
sS'Wage Gains'
p700
I4
sS'Braxton Miller'
p701
I8
sS'Heineken Ends'
p702
I2
sS'Fiscal Charter'
p703
I2
sS'Kate Middleton'
p704
I6
sS'Fresh Voice'
p705
I1
sS'Robin Thicke'
p706
I4
sS'Man Key'
p707
I6
sS'York Press'
p708
I15
sS'Seneca Valley'
p709
I3
sS'Perry Dance'
p710
I1
sS'Scales Back'
p711
I63
sS'Mike Vick'
p712
I2
sS'Cape Town'
p713
I36
sS'Southern Civil'
p714
I3
sS'Donald Trump'
p715
I1077
sS'Wins Court'
p716
I54
sS'Derrick Rose'
p717
I5
sS'Stephen Curry'
p718
I20
sS'Point Pleasant'
p719
I10
sS'Familia Church'
p720
I1
sS'New Form'
p721
I2
sS'School Grad'
p722
I1
sS'Eric Garner'
p723
I1
sS'Gerard Baker'
p724
I21
sS'Sticker Shock'
p725
I1
sS'Home Life'
p726
I19
sS'Nice Guy'
p727
I4
sS'Work Signs'
p728
I1
sS'Boomer Parents'
p729
I1
sS'York Senate'
p730
I1
sS'Margot Lawn'
p731
I2
sS'Sports Sites'
p732
I20
sS'Josh Rosen'
p733
I11
sS'Hands Cameron'
p734
I1
sS'May Sell'
p735
I17
sS'Fuel Rise'
p736
I23
sS'Ricky Martin'
p737
I3
sS'Hidden Pines'
p738
I5
sS'Jong Un'
p739
I27
sS'South Florida'
p740
I48
sS'School Police'
p741
I36
sS'Black Men'
p742
I3
sS'May Sue'
p743
I3
sS'Chuck Pagano'
p744
I6
sS'May Lose'
p745
I5
sS'Brendan Steele'
p746
I2
sS'Kirchner Legacy'
p747
I3
sS'Race May'
p748
I45
sS'First Black'
p749
I5
sS'Head Needs'
p750
I1
sS'Guillermo Del'
p751
I4
sS'John Oliver'
p752
I54
sS'Kirk Cousins'
p753
I81
sS'Nicola Sturgeon'
p754
I1
sS'Kevin Bacon'
p755
I20
sS'Hudson Rail'
p756
I14
sS'Rafael Nadal'
p757
I6
sS'Price Gain'
p758
I1
sS'Frederick Durant'
p759
I1
sS'Hunger Strike'
p760
I7
sS'Reveal New'
p761
I1
sS'Life May'
p762
I4
sS'Aldo Sohm'
p763
I3
sS'Rich Williams'
p764
I6
sS'China Takes'
p765
I1
sS'Richard Gere'
p766
I1
sS'Erin Andrews'
p767
I1
sS'Super Mario'
p768
I54
sS'Perry Hills'
p769
I3
sS'Bullock Worst'
p770
I3
sS'Trump Lack'
p771
I41
sS'Wrigley Field'
p772
I3
sS'George Pataki'
p773
I1
sS'Off Storm'
p774
I2
sS'Jessica Biel'
p775
I15
sS'Day Has'
p776
I63
sS'Jack Dickey'
p777
I98
sS'Near Ferguson'
p778
I2
sS'Carolina Deputy'
p779
I2
sS'Jamie Foxx'
p780
I8
sS'New Boss'
p781
I2
sS'Emma Roberts'
p782
I2
sS'Urban Water'
p783
I1
sS'Melvin Gordon'
p784
I1
sS'Off China'
p785
I24
sS'Willie Nelson'
p786
I2
sS'Joy Milne'
p787
I2
sS'Seth Russell'
p788
I15
sS'Ben Carson'
p789
I638
sS'Price War'
p790
I1
sS'Pines Fire'
p791
I3
sS'Parody Adele'
p792
I1
sS'Minister Sees'
p793
I3
sS'Don Mattingly'
p794
I32
sS'Newcomer Daisy'
p795
I9
sS'Jones Soda'
p796
I4
sS'Stone Age'
p797
I33
sS'Vint Cerf'
p798
I15
sS'Day Cure'
p799
I5
sS'Eye Trump'
p800
I1
sS'Jimmy Kimmel'
p801
I170
sS'Better Way'
p802
I55
sS'First Look'
p803
I12
sS'Leader Hails'
p804
I6
sS'Town Sale'
p805
I1
sS'Wage War'
p806
I2
sS'Locker Room'
p807
I21
sS'Jamie Dimon'
p808
I6
sS'Morgan May'
p809
I23
sS'Justin Bieber'
p810
I53
sS'Ed Reed'
p811
I3
sS'First Doing'
p812
I48
sS'Henry Krystal'
p813
I104
sS'Read Paul'
p814
I17
sS'Mount Vernon'
p815
I6
sS'Jon Lester'
p816
I10
sS'Andrew Luck'
p817
I42
sS'Hastert Takes'
p818
I4
sS'Harry Giles'
p819
I1
sS'Mike Pettine'
p820
I1
sS'Roman Polanski'
p821
I15
sS'Real Lunch'
p822
I1
sS'Jonathan Toews'
p823
I1
sS'Cedar Creek'
p824
I2
sS'Nick Carter'
p825
I4
sS'David Brooks'
p826
I84
sS'Palo Alto'
p827
I46
sS'Cecily Strong'
p828
I8
sS'Post Top'
p829
I3
sS'Trial Face'
p830
I4
sS'Carrie Underwood'
p831
I43
sS'Mountain House'
p832
I17
sS'Law School'
p833
I228
sS'Poor Man'
p834
I24
sS'Chad Kelly'
p835
I1
sS'Reach Deal'
p836
I13
sS'Pool Hidden'
p837
I24
sS'City Music'
p838
I1
sS'Jesse Jackson'
p839
I2
sS'Star Bastian'
p840
I3
sS'Howard Coble'
p841
I20
sS'Do Wine'
p842
I75
sS'Mayor Ed'
p843
I4
sS'Will Jim'
p844
I1
sS'New Battle'
p845
I3
sS'Adam Silver'
p846
I3
sS'Ishmael Adams'
p847
I1
sS'Barrier Reef'
p848
I6
sS'Brand New'
p849
I2
sS'Back Lab'
p850
I42
sS'Common Shoulder'
p851
I1
sS'Sing Drake'
p852
I1
sS'Turtle Found'
p853
I1
sS'Joe Nocera'
p854
I74
sS'China Sea'
p855
I265
sS'Silverman Tell'
p856
I43
sS'Dennis Ross'
p857
I1
sS'Anne Wojcicki'
p858
I2
sS'Trump Card'
p859
I18
sS'Frank Stella'
p860
I4
sS'Edward Caban'
p861
I2
sS'Bear Market'
p862
I1
sS'Off New'
p863
I10
sS'Grant Morrison'
p864
I24
sS'Sybil Stockdale'
p865
I14
sS'Rout Royals'
p866
I4
sS'Odell Beckham'
p867
I55
sS'Chrysler Beat'
p868
I1
sS'Civil Case'
p869
I13
sS'Bill Long'
p870
I4
sS'Key Test'
p871
I4
sS'Record Hole'
p872
I1
sS'Bible Study'
p873
I2
sS'Dad Donald'
p874
I5
sS'Credit Score'
p875
I1
sS'Test China'
p876
I1
sS'Isaiah Thomas'
p877
I3
sS'Carson Palmer'
p878
I1
sS'Kate Tiara'
p879
I2
sS'Randy Wittman'
p880
I4
sS'Cross Drop'
p881
I1
sS'Montana State'
p882
I2
sS'Down Grantland'
p883
I48
sS'Jessica Jones'
p884
I1
sS'Spies Kid'
p885
I1
sS'Peele Will'
p886
I6
sS'Wake Forest'
p887
I1
sS'Christina Milian'
p888
I1
sS'Little Clarity'
p889
I1
sS'Plain English'
p890
I4
sS'May Force'
p891
I2
sS'Charity Bar'
p892
I1
sS'Coral Dress'
p893
I1
sS'Mueller Dies'
p894
I1
sS'Santa Barbara'
p895
I1
sS'Al Molinaro'
p896
I58
sS'Police Search'
p897
I59
sS'Michael Roth'
p898
I14
sS'Takes Notice'
p899
I8
sS'King James'
p900
I55
sS'Fort Bragg'
p901
I3
sS'Minister Justin'
p902
I7
sS'Royal Shakespeare'
p903
I1
sS'Marlon James'
p904
I69
sS'Bitter Memory'
p905
I16
sS'Cleveland Trucker'
p906
I3
sS'Craig Sager'
p907
I3
sS'May Tell'
p908
I7
sS'Wins New'
p909
I5
sS'Black Church'
p910
I1
sS'Ian Poulter'
p911
I4
sS'Cruz Goes'
p912
I4
sS'Syracuse Leader'
p913
I2
sS'Clinton Bucks'
p914
I7
sS'China Port'
p915
I21
sS'Irwin Schiff'
p916
I2
sS'Read Mean'
p917
I2
sS'Arab Citizen'
p918
I3
sS'Pacific Ocean'
p919
I14
sS'Justin Rose'
p920
I1
sS'Stake Can'
p921
I13
sS'Russian Roulette'
p922
I91
sS'Town Deal'
p923
I26
sS'Thrift Store'
p924
I2
sS'Salon Worker'
p925
I4
sS'Read Joe'
p926
I6
sS'Michael Jackson'
p927
I147
sS'Police Chase'
p928
I3
sS'North America'
p929
I29
sS'Eddie Lacy'
p930
I3
sS'No Hands'
p931
I1
sS'House Reach'
p932
I13
sS'York Times'
p933
I111
sS'Heal Better'
p934
I1
sS'City Condo'
p935
I1
sS'Sails Near'
p936
I8
sS'High School'
p937
I163
sS'Wells Fargo'
p938
I72
sS'Scott Walker'
p939
I6
sS'Oakland Mills'
p940
I4
sS'Andrew Garfield'
p941
I10
sS'Peyton Manning'
p942
I36
sS'Big Way'
p943
I1
sS'Trump Takes'
p944
I1
sS'Julien Studley'
p945
I8
sS'Rubio Won'
p946
I8
sS'Tom Jones'
p947
I1
sS'Joe Philbin'
p948
I2
sS'Thomas Jefferson'
p949
I23
sS'Bill Cosby'
p950
I61
sS'Maine Waters'
p951
I18
sS'Maker Snyder'
p952
I2
sS'Small World'
p953
I4
sS'Blue Line'
p954
I2
sS'Border Hand'
p955
I1
sS'Cardinal Donald'
p956
I2
sS'Nan Goldin'
p957
I27
sS'Snow Princess'
p958
I3
sS'George Soros'
p959
I19
sS'Hover Near'
p960
I1
sS'Grave Music'
p961
I1
sS'Nico Rosberg'
p962
I1
sS'York Police'
p963
I6
sS'Rubio Moment'
p964
I13
sS'Bernie Sanders'
p965
I586
sS'Edie Campbell'
p966
I2
sS'Come Home'
p967
I57
sS'Morning Ledger'
p968
I136
sS'Rex Bone'
p969
I3
sS'Small Car'
p970
I1
sS'West Point'
p971
I2
sS'Sarah Feinberg'
p972
I2
sS'Daniel Craig'
p973
I28
sS'Metta World'
p974
I4
sS'Bullock Takes'
p975
I1
sS'Copa America'
p976
I1
sS'John Wren'
p977
I3
sS'Bank Case'
p978
I7
sS'Key Syria'
p979
I4
sS'Susan Schneider'
p980
I3
sS'Daily Loss'
p981
I2
sS'Win Second'
p982
I10
sS'New Home'
p983
I194
sS'Cosby Show'
p984
I15
sS'George Germon'
p985
I23
sS'Kidney Cancer'
p986
I2
sS'Charlie Campbell'
p987
I139
sS'Sanders Won'
p988
I11
sS'Clinton Win'
p989
I1
sS'Steve Smith'
p990
I2
sS'Takes Early'
p991
I1
sS'Washington Post'
p992
I567
sS'Cancer Pat'
p993
I1
sS'Semen Nine'
p994
I12
sS'Old West'
p995
I41
sS'Howard Marks'
p996
I4
sS'Bill Maher'
p997
I16
sS'Axel Springer'
p998
I17
sS'Val Kilmer'
p999
I1
sS'Drone Near'
p1000
I8
sS'Taylor Swift'
p1001
I504
sS'Old Apple'
p1002
I24
sS'Band Leader'
p1003
I12
sS'David Lemieux'
p1004
I6
sS'Stewart Heads'
p1005
I2
sS'Back Age'
p1006
I14
sS'John Brennan'
p1007
I2
sS'El Nino'
p1008
I7
sS'Music App'
p1009
I2
sS'Billy Donovan'
p1010
I8
sS'Jennifer Grey'
p1011
I1
sS'Johnny Cueto'
p1012
I9
sS'Fabian Johnson'
p1013
I1
sS'Big Al'
p1014
I2
sS'Roger Federer'
p1015
I5
sS'Royal Alex'
p1016
I5
sS'Jerold Callam'
p1017
I3
sS'David Einhorn'
p1018
I1
sS'Dennis Hastert'
p1019
I31
sS'First Glimpse'
p1020
I18
sS'Barney Frank'
p1021
I59
sS'President Park'
p1022
I2
sS'Davis Comes'
p1023
I2
sS'Emma Watson'
p1024
I132
sS'Host Trevor'
p1025
I2
sS'Party Leader'
p1026
I4
sS'Sonny Bill'
p1027
I10
sS'Honor Martin'
p1028
I3
sS'El Al'
p1029
I1
sS'Honda Profit'
p1030
I1
sS'Minister Trudeau'
p1031
I2
sS'Ron Gardenhire'
p1032
I1
sS'Africa Heading'
p1033
I1
sS'Kirchner Has'
p1034
I10
sS'Oakley Back'
p1035
I1
sS'Selena Gomez'
p1036
I134
sS'Luck Charm'
p1037
I69
sS'House Sees'
p1038
I6
sS'College Weight'
p1039
I18
sS'Lewis Hamilton'
p1040
I1
sS'Geno Smith'
p1041
I3
sS'Christian Hackenberg'
p1042
I3
sS'Kevin Love'
p1043
I9
sS'Gray Hamburger'
p1044
I1
sS'Greek Island'
p1045
I32
sS'Rick Ross'
p1046
I1
sS'West Side'
p1047
I2
sS'Josh Ritter'
p1048
I21
sS'Apple Music'
p1049
I106
sS'President George'
p1050
I1
sS'Jim Crow'
p1051
I2
sS'Coast Port'
p1052
I19
sS'Clay Buchholz'
p1053
I1
sS'Surface Book'
p1054
I49
sS'Matt Damon'
p1055
I6
sS'David Price'
p1056
I13
sS'Charles Koch'
p1057
I3
sS'Patch Angers'
p1058
I1
sS'Key Southern'
p1059
I5
sS'Jews Enter'
p1060
I1
sS'Hilary Mantel'
p1061
I3
sS'Step Down'
p1062
I4
sS'Yellow Line'
p1063
I1
sS'Home Price'
p1064
I7
sS'West Virginia'
p1065
I18
sS'Union Pacific'
p1066
I5
sS'Bush Has'
p1067
I22
sS'Emma Ashford'
p1068
I112
sS'Winning Edge'
p1069
I3
sS'Eddie Murphy'
p1070
I130
sS'New Son'
p1071
I1
sS'Bob Dylan'
p1072
I6
sS'Crown No'
p1073
I17
sS'State Street'
p1074
I3
sS'Smart Money'
p1075
I15
sS'Rolling Carbon'
p1076
I2
sS'Clayton Kershaw'
p1077
I9
sS'Larry Rosen'
p1078
I2
sS'John Irving'
p1079
I94
sS'Juan Uribe'
p1080
I1
sS'Save Space'
p1081
I1
sS'Blake Show'
p1082
I1
sS'Wins Man'
p1083
I65
sS'Cancer Gave'
p1084
I4
sS'Post Loss'
p1085
I1
sS'South Dakota'
p1086
I45
sS'Jake Shears'
p1087
I1
sS'May Link'
p1088
I4
sS'Face First'
p1089
I4
sS'Smart Home'
p1090
I3
sS'Common Core'
p1091
I13
sS'Civil War'
p1092
I61
sS'Andy Grammer'
p1093
I2
sS'Gun Ring'
p1094
I2
sS'Warm Sea'
p1095
I2
sS'Robert Durst'
p1096
I6
sS'Bader Ginsburg'
p1097
I30
sS'Orange Patches'
p1098
I1
sS'Back Fleet'
p1099
I20
sS'Bell Will'
p1100
I65
sS'Ivory Coast'
p1101
I42
sS'Space Station'
p1102
I39
sS'Trial Can'
p1103
I16
sS'George Zimmer'
p1104
I1
sS'Home State'
p1105
I1
sS'Canada Pares'
p1106
I8
sS'Face Marin'
p1107
I1
sS'Life Back'
p1108
I7
sS'Links Police'
p1109
I4
sS'Tune Apple'
p1110
I1
sS'Mahmoud Abbas'
p1111
I2
sS'Tout New'
p1112
I3
sS'Show Border'
p1113
I1
sS'Kevin Durant'
p1114
I13
sS'Gervais Has'
p1115
I1
sS'New Low'
p1116
I28
sS'York Condo'
p1117
I30
sS'Washington Wire'
p1118
I26
sS'Chris Johnson'
p1119
I2
sS'Sue Toy'
p1120
I3
sS'School Board'
p1121
I1
sS'Weight Gain'
p1122
I25
sS'Warns Battle'
p1123
I3
sS'Law Schools'
p1124
I2
sS'Hilla Becher'
p1125
I22
sS'Quiet Swiss'
p1126
I2
sS'Neil Patrick'
p1127
I43
sS'Will Stay'
p1128
I9
sS'Nancy Dunning'
p1129
I4
sS'Scott Servais'
p1130
I2
sS'Huntington Ingalls'
p1131
I60
sS'Dark Waters'
p1132
I2
sS'Call Rubio'
p1133
I18
sS'Chris Mintz'
p1134
I29
sS'Warner Cable'
p1135
I47
sS'First College'
p1136
I12
sS'York Mayor'
p1137
I14
sS'Margaret Sanger'
p1138
I1
sS'Clinton Be'
p1139
I12
sS'Latin America'
p1140
I11
sS'Faster Than'
p1141
I10
sS'Dale Earnhardt'
p1142
I6
sS'Her High'
p1143
I80
sS'East Asia'
p1144
I2
sS'South Africa'
p1145
I217
sS'Ryan Taps'
p1146
I8
sS'High Line'
p1147
I72
sS'Pistorius Case'
p1148
I2
sS'Driver Susie'
p1149
I4
sS'Chambers Speaks'
p1150
I5
sS'Stefani Party'
p1151
I3
sS'Backers Plan'
p1152
I12
sS'Florida Cull'
p1153
I4
sS'Dorothy Day'
p1154
I2
sS'Heart Likes'
p1155
I3
sS'Isabell Baltimore'
p1156
I1
sS'Dear Big'
p1157
I1
sS'Larry Lessig'
p1158
I2
sS'Jon Stewart'
p1159
I92
sS'Swan Song'
p1160
I7
sS'Tennis Hall'
p1161
I3
sS'First State'
p1162
I7
sS'Prey Near'
p1163
I42
sS'New Trudeau'
p1164
I7
sS'Kerry Hopes'
p1165
I1
sS'Job Done'
p1166
I17
sS'Alter Ego'
p1167
I1
sS'Greg Hardy'
p1168
I11
sS'Large Stake'
p1169
I11
sS'Annie Oakley'
p1170
I1
sS'Ray Cook'
p1171
I9
sS'New England'
p1172
I42
sS'Echo Park'
p1173
I1
sS'Tyrone Howard'
p1174
I14
sS'Elton John'
p1175
I2
sS'Joshua Bell'
p1176
I5
sS'Bowling Alley'
p1177
I1
sS'Catalan President'
p1178
I7
sS'Money Case'
p1179
I1
sS'Maya Lin'
p1180
I78
sS'Justice Ginsburg'
p1181
I2
sS'Holmes Goes'
p1182
I4
sS'Police Storm'
p1183
I1
sS'Mighty Hammer'
p1184
I1
sS'Aid Speaker'
p1185
I2
sS'Walt Disney'
p1186
I1
sS'Jamie Zimmerman'
p1187
I5
sS'John Farrell'
p1188
I18
sS'Camp Pendleton'
p1189
I1
sS'Georgia Went'
p1190
I2
sS'George Mason'
p1191
I2
sS'Holly Holm'
p1192
I48
sS'Charles Woodson'
p1193
I1
sS'Off Sunday'
p1194
I1
sS'Off Northern'
p1195
I1
sS'Back Job'
p1196
I6
sS'Apple Warns'
p1197
I1
sS'Apple Has'
p1198
I1
sS'New Law'
p1199
I5
sS'Carolina Shores'
p1200
I3
sS'Swift Sing'
p1201
I59
sS'Martin Klein'
p1202
I1
sS'Police Halt'
p1203
I5
sS'Kardashian Speaks'
p1204
I2
sS'Down Russian'
p1205
I2
sS'Nickell Robey'
p1206
I1
sS'Stars Found'
p1207
I16
sS'Wins Poland'
p1208
I17
sS'Floyd Mayweather'
p1209
I3
sS'Condo Tower'
p1210
I30
sS'Bar Fire'
p1211
I3
sS'Southern Tier'
p1212
I3
sS'Getting High'
p1213
I1
sS'Angela Merkel'
p1214
I5
sS'Cameron Smith'
p1215
I4
sS'Weekly Price'
p1216
I1
sS'Economy Grew'
p1217
I5
sS'Joe Cahill'
p1218
I3
sS'Canal Swim'
p1219
I1
sS'Andrew Loupe'
p1220
I1
sS'Greek Bank'
p1221
I6
sS'Mo Williams'
p1222
I1
sS'Too Long'
p1223
I1
sS'May Lower'
p1224
I1
sS'China Credit'
p1225
I3
sS'New Book'
p1226
I7
sS'Israel Frees'
p1227
I7
sS'Bring Ellie'
p1228
I36
sS'Child Rape'
p1229
I1
sS'Baldwin Has'
p1230
I24
sS'Chris Webber'
p1231
I1
sS'Rough Student'
p1232
I31
sS'Black Women'
p1233
I69
sS'Big Town'
p1234
I5
sS'Jason Hammel'
p1235
I1
sS'Cross State'
p1236
I2
sS'Slim Gain'
p1237
I1
sS'Paul Allen'
p1238
I1
sS'Muslim Age'
p1239
I3
sS'Fort Lauderdale'
p1240
I12
sS'Come True'
p1241
I27
sS'Face Off'
p1242
I3
sS'San Francisco'
p1243
I341
sS'Clinton Takes'
p1244
I1
sS'New Look'
p1245
I82
sS'Amy Poehler'
p1246
I1
sS'Shows Off'
p1247
I48
sS'Adam Lambert'
p1248
I8
sS'Side Street'
p1249
I4
sS'Francisco Board'
p1250
I2
sS'New President'
p1251
I10
sS'Free Uber'
p1252
I3
sS'Signs Fuel'
p1253
I4
sS'Found Gun'
p1254
I10
sS'Kelly Clarkson'
p1255
I34
sS'Yellow Ranger'
p1256
I1
sS'Silver Spring'
p1257
I33
sS'Derek Jeter'
p1258
I4
sS'Found Staples'
p1259
I18
sS'La Salle'
p1260
I1
sS'Mario Draghi'
p1261
I32
sS'Syria Peace'
p1262
I37
sS'Screen All'
p1263
I5
sS'Pernod Ricard'
p1264
I7
sS'Patricia Shows'
p1265
I34
sS'Smith Island'
p1266
I1
sS'Zachary Hammond'
p1267
I3
sS'Dick Van'
p1268
I2
sS'Wear Fake'
p1269
I2
sS'Strange Case'
p1270
I70
sS'May Face'
p1271
I5
sS'Kaci Hickox'
p1272
I4
sS'Ivy Channel'
p1273
I5
sS'Storms Bring'
p1274
I2
sS'Joe Vitt'
p1275
I1
sS'Albany Plan'
p1276
I2
sS'Stella Tennant'
p1277
I5
sS'Rock Bottom'
p1278
I24
sS'Katie Holmes'
p1279
I15
sS'Strong Start'
p1280
I8
sS'Ways Taylor'
p1281
I2
sS'Odom Kidney'
p1282
I2
sS'Summer Camp'
p1283
I9
sS'China Economy'
p1284
I2
sS'Car Chase'
p1285
I1
sS'Thompson Dies'
p1286
I38
sS'Show Odom'
p1287
I1
sS'Hard Line'
p1288
I20
sS'New Blue'
p1289
I3
sS'Red Will'
p1290
I4
sS'Prince William'
p1291
I29
sS'Dorothy Bland'
p1292
I28
sS'Urban Meyer'
p1293
I1
sS'City High'
p1294
I2
sS'Kill Off'
p1295
I4
sS'Longest Single'
p1296
I2
sS'Heist Goes'
p1297
I6
sS'Justin Route'
p1298
I2
sS'Stevie Wonder'
p1299
I3
sS'Police Raid'
p1300
I36
sS'Virginia Student'
p1301
I3
sS'Falls Less'
p1302
I7
sS'Cleveland Park'
p1303
I70
sS'Tiny Town'
p1304
I3
sS'Gather Force'
p1305
I12
sS'Syria Will'
p1306
I3
sS'Congress Back'
p1307
I4
sS'Awkward Age'
p1308
I6
sS'Shows Officer'
p1309
I1
sS'Derrick Coleman'
p1310
I1
sS'Must First'
p1311
I32
sS'Canada Coast'
p1312
I3
sS'Will Jon'
p1313
I1
sS'Cruz Offer'
p1314
I1
sS'Can Harm'
p1315
I86
sS'Chrissy Teigen'
p1316
I48
sS'Lamb Curry'
p1317
I71
sS'Begin Second'
p1318
I1
sS'Chris Simms'
p1319
I1
sS'Kris Humphries'
p1320
I1
sS'Broadway Press'
p1321
I5
sS'New Bottom'
p1322
I1
sS'Barry Farm'
p1323
I1
sS'Kristina Brown'
p1324
I20
sS'Than Angry'
p1325
I2
sS'Valley Kraft'
p1326
I1
sS'Jolie Pitt'
p1327
I27
sS'Lydia Ko'
p1328
I1
sS'Whitey Ford'
p1329
I1
sS'Hugh Hewitt'
p1330
I5
sS'Pacific Coast'
p1331
I21
sS'Frieze London'
p1332
I3
sS'Fargo Profit'
p1333
I6
sS'Bridge Due'
p1334
I1
sS'Trudeau Will'
p1335
I2
sS'Has Hurt'
p1336
I15
sS'Lizzie Baker'
p1337
I1
sS'Jared Fogle'
p1338
I4
sS'Head Coach'
p1339
I2
sS'Jim Bowden'
p1340
I1
sS'Russian Plane'
p1341
I78
sS'Writer Takes'
p1342
I1
sS'Stanley Profit'
p1343
I10
sS'Phoenix Area'
p1344
I1
sS'Down All'
p1345
I16
sS'Bad Boss'
p1346
I1
sS'France Try'
p1347
I83
sS'Lohan May'
p1348
I1
sS'Scott Van'
p1349
I2
sS'Winfrey Buys'
p1350
I3
sS'Song Big'
p1351
I1
sS'Search Sea'
p1352
I27
sS'Led Him'
p1353
I17
sS'Grave Balk'
p1354
I25
sS'Race Test'
p1355
I15
sS'Wins Staten'
p1356
I3
sS'Pizza Box'
p1357
I7
sS'Sheldon Richardson'
p1358
I2
sS'Profit Rose'
p1359
I4
sS'Pass Rush'
p1360
I6
sS'Rape Case'
p1361
I1
sS'Freddie Mac'
p1362
I3
sS'Setting Gold'
p1363
I1
sS'First Court'
p1364
I1
sS'Uber App'
p1365
I13
sS'Fall Art'
p1366
I6
sS'Burma Jade'
p1367
I3
sS'Gathers New'
p1368
I23
sS'Vice President'
p1369
I45
sS'Chris Christie'
p1370
I64
sS'Amanda Peet'
p1371
I1
sS'Jeff Shotts'
p1372
I8
sS'Pope Has'
p1373
I1
sS'Credit Card'
p1374
I15
sS'Jake Layman'
p1375
I2
sS'Push Bill'
p1376
I12
sS'Syria Rebel'
p1377
I8
sS'Virginia Senate'
p1378
I2
sS'Magic Johnson'
p1379
I4
sS'Down Plan'
p1380
I3
sS'Pacific Rim'
p1381
I2
sS'Jersey Town'
p1382
I19
sS'Martin Sorrell'
p1383
I3
sS'David Wolpe'
p1384
I28
sS'Will Carry'
p1385
I1
sS'Diesel Gate'
p1386
I6
sS'Broadway Box'
p1387
I8
sS'Bill Ackman'
p1388
I47
sS'Bruce Springsteen'
p1389
I10
sS'Condo Sells'
p1390
I25
sS'Ryan Reynolds'
p1391
I1
sS'Catchings Will'
p1392
I1
sS'Jes Staley'
p1393
I16
sS'George Boole'
p1394
I66
sS'Joseph Ganim'
p1395
I6
sS'Us Too'
p1396
I1
sS'Webb Mulling'
p1397
I2
sS'Beer Deal'
p1398
I12
sS'Ocean Beach'
p1399
I3
sS'Andy Murray'
p1400
I3
sS'Peter Wehner'
p1401
I2
sS'May Strike'
p1402
I5
sS'Tom Clancy'
p1403
I48
sS'Berlin Wall'
p1404
I24
sS'Aid Deal'
p1405
I5
sS'Island College'
p1406
I3
sS'New Heart'
p1407
I5
sS'Carey Wallace'
p1408
I78
sS'Kevin Davis'
p1409
I12
sS'Raid Media'
p1410
I2
sS'Jon Bon'
p1411
I4
sS'Kris Jenner'
p1412
I1
sS'Malcolm Culmer'
p1413
I1
sS'Oak Brook'
p1414
I1
sS'Bill Gross'
p1415
I21
sS'Courtney Jung'
p1416
I6
sS'Paul Rode'
p1417
I6
sS'No Simple'
p1418
I4
sS'North Star'
p1419
I1
sS'Will Mayor'
p1420
I3
sS'Kenya Barris'
p1421
I1
sS'Rides Lofty'
p1422
I18
sS'Backe Dies'
p1423
I47
sS'Northern Syria'
p1424
I1
sS'New King'
p1425
I21
sS'Profit Fall'
p1426
I1
sS'Tim Wallach'
p1427
I1
sS'Matt Black'
p1428
I5
sS'Home Kitchen'
p1429
I4
sS'Lennart Anderson'
p1430
I30
sS'Little Money'
p1431
I3
sS'Wins Second'
p1432
I1
sS'Key Reason'
p1433
I14
sS'Lennie James'
p1434
I4
sS'Free Music'
p1435
I2
sS'Bill Gates'
p1436
I9
sS'Johnny Galecki'
p1437
I3
sS'Hickox Will'
p1438
I1
sS'Hillary Hearing'
p1439
I1
sS'Landmark Vote'
p1440
I7
sS'Lake Braddock'
p1441
I2
sS'Paul Krugman'
p1442
I8
sS'New Floor'
p1443
I8
sS'Deep South'
p1444
I3
sS'Brinkley Show'
p1445
I1
sS'Chancellor Heads'
p1446
I1
sS'Virgil Conway'
p1447
I25
sS'Party Aid'
p1448
I7
sS'Art Stars'
p1449
I19
sS'Rick Nash'
p1450
I11
sS'Bail Laws'
p1451
I1
sS'Come Close'
p1452
I1
sS'Leonard Williams'
p1453
I2
sS'Misty Copeland'
p1454
I74
sS'Adam Schiff'
p1455
I4
sS'New Long'
p1456
I1
sS'Melissa Benoist'
p1457
I3
sS'Dry Eye'
p1458
I4
sS'Party Congress'
p1459
I1
sS'Joseph Randle'
p1460
I4
sS'Bob Marley'
p1461
I4
sS'Zuckerberg Courts'
p1462
I20
sS'New Hampshire'
p1463
I36
sS'Hill Valley'
p1464
I7
sS'Smart Lock'
p1465
I12
sS'War Torn'
p1466
I5
sS'Don Newman'
p1467
I1
sS'Trey Gowdy'
p1468
I52
sS'Buys Back'
p1469
I16
sS'Reach World'
p1470
I17
sS'Part Chill'
p1471
I1
sS'First World'
p1472
I35
sS'App City'
p1473
I2
sS'Near High'
p1474
I21
sS'Kansas City'
p1475
I167
sS'Case New'
p1476
I1
sS'Push Copper'
p1477
I1
sS'Memory Loss'
p1478
I1
sS'Late Prime'
p1479
I1
sS'Economy Cools'
p1480
I3
sS'Jason Mann'
p1481
I4
sS'Care May'
p1482
I44
sS'Kansas Voter'
p1483
I7
sS'Ralph Loura'
p1484
I64
sS'Sachs Banker'
p1485
I128
sS'Killings Brought'
p1486
I2
sS'Blue America'
p1487
I1
sS'Union Square'
p1488
I5
sS'Jo White'
p1489
I3
sS'Max Ernst'
p1490
I19
sS'Jon Snow'
p1491
I72
sS'Benjamin Grosvenor'
p1492
I43
sS'New Jupiter'
p1493
I3
sS'Kim Jong'
p1494
I27
sS'White House'
p1495
I414
sS'Times Best'
p1496
I89
sS'Point Storms'
p1497
I1
sS'Dollar Strength'
p1498
I6
sS'Floyd Ray'
p1499
I9
sS'Fail Early'
p1500
I6
sS'Sinks Off'
p1501
I19
sS'Goes Savory'
p1502
I24
sS'Million Face'
p1503
I5
sS'Forest Service'
p1504
I3
sS'Island Hamlet'
p1505
I1
sS'Guardian Council'
p1506
I3
sS'Moon Landing'
p1507
I1
sS'Kardashian Never'
p1508
I2
sS'Falls Ill'
p1509
I1
sS'Bonds Start'
p1510
I2
sS'Blow Them'
p1511
I1
sS'Ben Affleck'
p1512
I6
sS'Getting Party'
p1513
I9
sS'Clinton Portis'
p1514
I2
sS'Mary Barra'
p1515
I5
sS'Iman Shumpert'
p1516
I9
sS'Hack Less'
p1517
I75
sS'Down Bali'
p1518
I3
sS'Maureen Dowd'
p1519
I47
sS'Lawrence Pee'
p1520
I5
sS'Mass Gains'
p1521
I2
sS'Wilde Lake'
p1522
I2
sS'Green Light'
p1523
I1
sS'High Stakes'
p1524
I41
sS'Kaley Cuoco'
p1525
I9
sS'Mamie Gummer'
p1526
I16
sS'Jack Black'
p1527
I2
sS'Win Big'
p1528
I2
sS'Kardashian Seen'
p1529
I1
sS'Dials Back'
p1530
I40
sS'Carmen Carrera'
p1531
I1
sS'Jerry Rice'
p1532
I3
sS'Most Days'
p1533
I2
sS'Apple Loop'
p1534
I6
sS'Rebel Wilson'
p1535
I6
sS'Younger Women'
p1536
I2
sS'Sweep New'
p1537
I25
sS'Degree May'
p1538
I1
sS'Student Jimmy'
p1539
I6
sS'Joseph Duffy'
p1540
I2
sS'Welcome Every'
p1541
I15
sS'New Bank'
p1542
I4
sS'June Vote'
p1543
I5
sS'Look Do'
p1544
I3
sS'New Russian'
p1545
I2
sS'Police Want'
p1546
I19
sS'Jenna Ink'
p1547
I2
sS'Police Union'
p1548
I6
sS'Rodney Harrison'
p1549
I30
sS'Small Plane'
p1550
I8
sS'Place New'
p1551
I1
sS'Angeles Council'
p1552
I1
sS'Ingels Dies'
p1553
I7
sS'Bank Will'
p1554
I16
sS'Amy Grant'
p1555
I2
sS'Goes Clinton'
p1556
I2
sS'Theo Epstein'
p1557
I15
sS'Veil Little'
p1558
I27
sS'Florida Show'
p1559
I1
sS'Ford Profit'
p1560
I37
sS'Start Sunday'
p1561
I5
sS'Long Drought'
p1562
I2
sS'Kardashian Will'
p1563
I1
sS'Net Worth'
p1564
I2
sS'College Park'
p1565
I10
sS'Lower Back'
p1566
I3
sS'Lamar Miller'
p1567
I2
sS'Dusty Baker'
p1568
I60
sS'Ship Killer'
p1569
I2
sS'Scarlett Johansson'
p1570
I49
sS'Charles Brooks'
p1571
I1
sS'Landry Jones'
p1572
I1
sS'Luger Party'
p1573
I1
sS'Moss Gathers'
p1574
I23
sS'Joan Leslie'
p1575
I40
sS'Pretzel Maker'
p1576
I5
sS'Stevens Cover'
p1577
I2
sS'York Church'
p1578
I22
sS'New Old'
p1579
I32
sS'San Jose'
p1580
I10
sS'Stem Flow'
p1581
I2
sS'Bush May'
p1582
I1
sS'Ed Sheeran'
p1583
I2
sS'Frederick Wiseman'
p1584
I2
sS'Jamie Colby'
p1585
I43
sS'Poor Cancer'
p1586
I1
sS'Alan Simpson'
p1587
I1
sS'School Sword'
p1588
I17
sS'David Shields'
p1589
I1
sS'Austria Border'
p1590
I1
sS'Red Light'
p1591
I24
sS'Aaron Sorkin'
p1592
I10
sS'Sachs Lowers'
p1593
I1
sS'Cooper Try'
p1594
I2
sS'Joel Ward'
p1595
I1
sS'Matt Harvey'
p1596
I59
sS'West Coast'
p1597
I11
sS'Luck Book'
p1598
I19
sS'Red Cross'
p1599
I3
sS'Lose World'
p1600
I16
sS'Worn Off'
p1601
I4
sS'Ranch Deal'
p1602
I21
sS'Ben Watson'
p1603
I1
sS'Patrice Rene'
p1604
I2
sS'David Shield'
p1605
I2
sS'Labor Deal'
p1606
I24
sS'Van Dyke'
p1607
I2
sS'King Charles'
p1608
I2
sS'Darlena Cunha'
p1609
I5
sS'David Soo'
p1610
I3
sS'City Mayor'
p1611
I1
sS'Elijah Cummings'
p1612
I9
sS'Bad Weather'
p1613
I27
sS'Janet Yellen'
p1614
I76
sS'Michael Connelly'
p1615
I15
sS'Tommy Cross'
p1616
I1
sS'Rob Kardashian'
p1617
I4
sS'Better Cheese'
p1618
I2
sS'Big Book'
p1619
I19
sS'Police Officer'
p1620
I25
sS'Tom Coughlin'
p1621
I3
sS'Force Apple'
p1622
I3
sS'Cable Guy'
p1623
I2
sS'Tom Lawless'
p1624
I1
sS'Voice Search'
p1625
I5
sS'Joe Barry'
p1626
I2
sS'Daniel Radcliffe'
p1627
I59
sS'Real Women'
p1628
I1
sS'Tamra Judge'
p1629
I1
sS'Karen Winter'
p1630
I1
sS'Red Bulls'
p1631
I6
sS'Daniel Murphy'
p1632
I118
sS'Navy Ship'
p1633
I6
sS'Ruby Rose'
p1634
I26
sS'Big House'
p1635
I7
sS'Sale Monday'
p1636
I4
sS'Sees Lower'
p1637
I13
sS'Wins Back'
p1638
I1
sS'Charter School'
p1639
I56
sS'Bill Gothard'
p1640
I1
sS'Worst Moment'
p1641
I1
sS'Bart Simpson'
p1642
I28
sS'Speaker Dennis'
p1643
I8
sS'Jared Dudley'
p1644
I7
sS'Ryan Has'
p1645
I8
sS'Mara Brock'
p1646
I49
sS'Sells Off'
p1647
I1
sS'Public Works'
p1648
I1
sS'Justin Theroux'
p1649
I82
sS'State Police'
p1650
I1
sS'Morgan Case'
p1651
I11
sS'Larry Hogan'
p1652
I4
sS'Kraft Heinz'
p1653
I16
sS'Jim Gilmore'
p1654
I1
sS'Officer Randolph'
p1655
I16
sS'Denver Has'
p1656
I1
sS'Marble Every'
p1657
I3
sS'Holiday Season'
p1658
I3
sS'Charlie Parker'
p1659
I11
sS'Little Guy'
p1660
I6
sS'Strain Job'
p1661
I1
sS'World Congress'
p1662
I1
sS'Ellen Kullman'
p1663
I3
sS'Fred Thompson'
p1664
I135
sS'Older Fan'
p1665
I93
sS'Fall Short'
p1666
I1
sS'Face Mask'
p1667
I8
sS'Paul George'
p1668
I1
sS'Fell Short'
p1669
I1
sS'City Council'
p1670
I109
sS'Kelly Klein'
p1671
I10
sS'Party Wins'
p1672
I38
sS'Bob Carpenter'
p1673
I1
sS'Martin Shkreli'
p1674
I27
sS'Wine School'
p1675
I89
sS'James Burke'
p1676
I1
sS'Press Paul'
p1677
I2
sS'Noah Syndergaard'
p1678
I18
sS'Reese Witherspoon'
p1679
I1
sS'Blake Shelton'
p1680
I22
sS'Jenner Show'
p1681
I1
sS'State Bail'
p1682
I1
sS'Norman Kali'
p1683
I2
sS'Jan Wallman'
p1684
I16
sS'Maid Park'
p1685
I1
sS'Gary Hart'
p1686
I1
sS'Robert Kraft'
p1687
I4
sS'Wins Gains'
p1688
I2
sS'Son Will'
p1689
I1
sS'Queen Erika'
p1690
I1
sS'Deal Pope'
p1691
I17
sS'Bryan Randall'
p1692
I2
sS'Harvey Day'
p1693
I1
sS'Meek Mill'
p1694
I5
sS'Barry Zito'
p1695
I3
sS'Mass Raid'
p1696
I14
sS'Dalton Trumbo'
p1697
I46
sS'York Officer'
p1698
I19
sS'Heart Button'
p1699
I2
sS'Be John'
p1700
I6
sS'Sam Zell'
p1701
I13
sS'Story Mode'
p1702
I10
sS'New Haven'
p1703
I1
sS'Jeff Koons'
p1704
I55
sS'Worker Has'
p1705
I1
sS'First Song'
p1706
I1
sS'Jamie Chung'
p1707
I1
sS'Labor Force'
p1708
I2
sS'Smith Grant'
p1709
I5
sS'Crews Free'
p1710
I1
sS'May Fly'
p1711
I8
sS'Olivier Martinez'
p1712
I15
sS'Sheridan Smith'
p1713
I19
sS'Uber Age'
p1714
I17
sS'Adam Scott'
p1715
I1
sS'Lizzie Velasquez'
p1716
I99
sS'David Alan'
p1717
I1
sS'New Danger'
p1718
I9
sS'Friday Tennis'
p1719
I1
sS'Long Locks'
p1720
I1
sS'Quinn Cover'
p1721
I1
sS'Driver Found'
p1722
I5
sS'Trey Williams'
p1723
I1
sS'Nicklas Backstrom'
p1724
I1
sS'York Art'
p1725
I1
sS'Breeding Killer'
p1726
I1
sS'Webb Warns'
p1727
I6
sS'Home May'
p1728
I1
sS'Richard Lakin'
p1729
I1
sS'Spencer Profit'
p1730
I4
sS'John Henson'
p1731
I2
sS'Andrew Zeller'
p1732
I1
sS'Black Drummer'
p1733
I12
sS'Helen Arnold'
p1734
I24
sS'Assad Said'
p1735
I4
sS'Trumps Faith'
p1736
I8
sS'Daily Gain'
p1737
I2
sS'Don Draper'
p1738
I51
sS'Cheese Kid'
p1739
I81
sS'Bank Board'
p1740
I15
sS'Surprise Party'
p1741
I4
sS'Big Home'
p1742
I42
sS'New Tone'
p1743
I21
sS'Bush Spar'
p1744
I2
sS'Wooden Stake'
p1745
I4
sS'Body Found'
p1746
I1
sS'Benedict Cumberbatch'
p1747
I1
sS'Gold May'
p1748
I17
sS'Quince Orchard'
p1749
I6
sS'Jay Garrick'
p1750
I1
sS'Tilda Swinton'
p1751
I1
sS'Landy Jones'
p1752
I1
sS'Her Husband'
p1753
I1
sS'Coach Vaughn'
p1754
I2
sS'Captain Jack'
p1755
I1
sS'Coast Guard'
p1756
I49
sS'Cranston Has'
p1757
I1
sS'Evangeline Moore'
p1758
I7
sS'West Hollywood'
p1759
I95
sS'Natalie Portman'
p1760
I24
sS'Marty Ingels'
p1761
I8
sS'Bob Thornton'
p1762
I2
sS'Carmen Miranda'
p1763
I25
sS'Mel Daniels'
p1764
I5
sS'Show Her'
p1765
I1
sS'Be Too'
p1766
I3
sS'Gus Savage'
p1767
I35
sS'Anthony Glasgow'
p1768
I1
sS'Langley Park'
p1769
I1
sS'Bar Germaine'
p1770
I36
sS'Part Ways'
p1771
I56
sS'Porsche Holding'
p1772
I11
sS'Man Rams'
p1773
I1
sS'Living Room'
p1774
I17
sS'Robert Galbraith'
p1775
I34
sS'World Peace'
p1776
I5
sS'Super Bowl'
p1777
I4
sS'Space Junk'
p1778
I10
sS'Tower Takes'
p1779
I1
sS'James Bond'
p1780
I139
sS'Owen Labrie'
p1781
I16
sS'Sergio Trujillo'
p1782
I15
sS'Town First'
p1783
I19
sS'Hero Spencer'
p1784
I4
sS'Heather Jones'
p1785
I40
sS'Brett Gardner'
p1786
I11
sS'Has Never'
p1787
I8
sS'Off Broadway'
p1788
I5
sS'Boston College'
p1789
I3
sS'Silver Wheaton'
p1790
I2
sS'Peter Luger'
p1791
I1
sS'Bernard Sumner'
p1792
I2
sS'Charlie Savage'
p1793
I9
sS'Josh Hutcherson'
p1794
I2
sS'Agent Cash'
p1795
I1
sS'Coach Jim'
p1796
I1
sS'James Holmes'
p1797
I31
sS'Lung Cancer'
p1798
I3
sS'Colin Welland'
p1799
I18
sS'Baker Hughes'
p1800
I10
sS'Joe Klein'
p1801
I266
sS'Flowers Grow'
p1802
I2
sS'John Tortorella'
p1803
I3
sS'Mike Tyson'
p1804
I26
sS'San Diego'
p1805
I66
sS'Both Sides'
p1806
I22
sS'Turns Holiday'
p1807
I1
sS'Lawrence Lessig'
p1808
I9
sS'Royals Coach'
p1809
I24
sS'Man Booker'
p1810
I69
sS'John Stockton'
p1811
I2
sS'Lenny Dykstra'
p1812
I2
sS'Shows Power'
p1813
I6
sS'Washington Bridge'
p1814
I109
sS'Bond Market'
p1815
I99
sS'Son Beau'
p1816
I3
sS'Deal Ends'
p1817
I6
sS'Jim Shaw'
p1818
I5
sS'Terri Upshaw'
p1819
I50
sS'Rock Back'
p1820
I1
sS'Tell Stephen'
p1821
I3
sS'Tom Cruise'
p1822
I5
sS'Kate Hudson'
p1823
I1
sS'Green Line'
p1824
I3
sS'Sudan Plane'
p1825
I10
sS'Eva Chow'
p1826
I52
sS'Rains Bring'
p1827
I1
sS'Trump Has'
p1828
I7
sS'Clinton Goes'
p1829
I16
sS'Stapleton Wins'
p1830
I1
sS'Levels Drop'
p1831
I2
sS'Chamber Music'
p1832
I3
sS'Mark Murphy'
p1833
I21
sS'Big Bank'
p1834
I24
sS'Old Canada'
p1835
I1
sS'Sieber Lands'
p1836
I2
sS'Art Fair'
p1837
I6
sS'Yale Don'
p1838
I1
sS'Captain Wright'
p1839
I23
sS'New Gray'
p1840
I1
sS'New Grad'
p1841
I1
sS'John Harbaugh'
p1842
I1
sS'Mohamed Bah'
p1843
I3
sS'Hong Kong'
p1844
I111
sS'Wilson Goes'
p1845
I6
sS'Bond Sale'
p1846
I4
sS'Percy Harvin'
p1847
I2
sS'Larry Page'
p1848
I28
sS'Signs Deal'
p1849
I18
sS'Sell Wind'
p1850
I3
sS'Steve Gebhardt'
p1851
I16
sS'Rebel Alliance'
p1852
I21
sS'Surprise Loss'
p1853
I3
sS'Red Sox'
p1854
I25
sS'John Backe'
p1855
I47
sS'Stake Due'
p1856
I1
sS'Susie Wolff'
p1857
I4
sS'Frank Beamer'
p1858
I7
sS'Harley Quinn'
p1859
I1
sS'Jay Beagle'
p1860
I3
sS'Will Test'
p1861
I1
sS'Christian Brooks'
p1862
I1
sS'New Perks'
p1863
I4
sS'New Poster'
p1864
I6
sS'New Leader'
p1865
I5
sS'New Hillary'
p1866
I48
sS'Bill Murray'
p1867
I55
sS'Takes New'
p1868
I27
sS'Andre Dawson'
p1869
I1
sS'Rising Wages'
p1870
I27
sS'Steve Carlton'
p1871
I1
sS'World Catholic'
p1872
I1
sS'New Canada'
p1873
I1
sS'Marcus Johansson'
p1874
I1
sS'Angeles Sheriff'
p1875
I1
sS'Signs Bill'
p1876
I1
sS'Writer Emma'
p1877
I1
sS'Dave Roberts'
p1878
I1
sS'Curtis Granderson'
p1879
I1
sS'Council Head'
p1880
I1
sS'Big Box'
p1881
I21
sS'May Head'
p1882
I17
sS'Center Honor'
p1883
I19
sS'Shaun White'
p1884
I6
sS'Mountain Spar'
p1885
I4
sS'House Price'
p1886
I2
sS'No More'
p1887
I19
sS'Aziz Ansari'
p1888
I117
sS'Harlem Nest'
p1889
I93
sS'Player Lamar'
p1890
I2
sS'King Kong'
p1891
I6
sS'New Way'
p1892
I36
sS'Linda Greenhouse'
p1893
I2
sS'Less Than'
p1894
I191
sS'Brought Down'
p1895
I3
sS'Flint Water'
p1896
I1
sS'Cargo Plane'
p1897
I47
sS'Real World'
p1898
I3
sS'Win New'
p1899
I5
sS'Poll Shows'
p1900
I1
sS'Smaller Balls'
p1901
I8
sS'Man Cave'
p1902
I2
sS'Will Diesel'
p1903
I6
sS'Speaker Paul'
p1904
I3
sS'Young Stars'
p1905
I20
sS'Tom Hanks'
p1906
I92
sS'Big Apple'
p1907
I16
sS'Wilbur Ross'
p1908
I4
sS'Tier Area'
p1909
I3
sS'Squibb China'
p1910
I23
sS'Cover Drake'
p1911
I2
sS'Apple App'
p1912
I6
sS'Guard Ends'
p1913
I1
sS'Off San'
p1914
I1
sS'Harvard Law'
p1915
I23
sS'Homs Province'
p1916
I1
sS'Wine Every'
p1917
I1
sS'Hire Clay'
p1918
I2
sS'Swift Bring'
p1919
I36
sS'Cover Letters'
p1920
I5
sS'Hubert Found'
p1921
I6
sS'Jesse Williams'
p1922
I1
sS'Jordan Smith'
p1923
I49
sS'Us All'
p1924
I1
sS'Man Stole'
p1925
I1
sS'Tyus Jones'
p1926
I5
sS'Quick Ways'
p1927
I2
sS'Mouse Ditch'
p1928
I11
sS'Claude Giroux'
p1929
I2
sS'Yellow Lights'
p1930
I7
sS'York State'
p1931
I30
sS'York Bank'
p1932
I14
sS'Carolina Beach'
p1933
I3
sS'Takes Key'
p1934
I1
sS'Martin Marietta'
p1935
I1
sS'Derwin Gray'
p1936
I2
sS'Barbie Doll'
p1937
I1
sS'Draft Arab'
p1938
I1
sS'Been Found'
p1939
I13
sS'Bonds Shine'
p1940
I16
sS'Driver Edward'
p1941
I2
sS'Takes Carnegie'
p1942
I43
sS'Virginia Rotunda'
p1943
I2
sS'State Parks'
p1944
I1
sS'Side Court'
p1945
I4
sS'Tata Steel'
p1946
I16
sS'Cameron Heyward'
p1947
I1
sS'Cindy Crawford'
p1948
I1
sS'Faro Cargo'
p1949
I45
sS'Florida Say'
p1950
I1
sS'James Franco'
p1951
I111
sS'Cary Fukunaga'
p1952
I1
sS'Justin Trudeau'
p1953
I215
sS'Merkel Links'
p1954
I8
sS'China Waters'
p1955
I12
sS'China Lowers'
p1956
I11
sS'Will Grier'
p1957
I1
sS'Will Serve'
p1958
I67
sS'Tony Romo'
p1959
I5
sS'Nicols Maduro'
p1960
I2
sS'Phoenix Suns'
p1961
I2
sS'High Court'
p1962
I13
sS'Lindsey Graham'
p1963
I19
sS'Star Abby'
p1964
I9
sS'Allen Moss'
p1965
I2
sS'Will Reach'
p1966
I3
sS'Emilia Clarke'
p1967
I31
sS'Redd Foxx'
p1968
I1
sS'Tell Terrible'
p1969
I43
sS'Princess Diana'
p1970
I23
sS'Spike Lee'
p1971
I4
sS'Center Tower'
p1972
I27
sS'Double Standard'
p1973
I1
sS'Cone Falls'
p1974
I30
sS'North Cleveland'
p1975
I70
sS'Halle Berry'
p1976
I50
sS'Wall Street'
p1977
I153
sS'Care Law'
p1978
I1
sS'New Yorker'
p1979
I26
sS'App Right'
p1980
I4
sS'Tyler Seguin'
p1981
I9
sS'David Wright'
p1982
I36
sS'New Levels'
p1983
I1
sS'Going Dark'
p1984
I1
sS'Amsterdam Music'
p1985
I1
sS'El Faro'
p1986
I104
sS'Party Sweat'
p1987
I5
sS'Top Honor'
p1988
I1
sS'May Tower'
p1989
I1
sS'Western Wall'
p1990
I17
sS'Piper Jaffray'
p1991
I25
sS'Speaker John'
p1992
I7
sS'First Draft'
p1993
I12
sS'Alan Cockrell'
p1994
I2
sS'Second Round'
p1995
I1
sS'Bolster Ben'
p1996
I1
sS'Patricia Head'
p1997
I2
sS'Wild Salmon'
p1998
I1
sS'Dianne Feinstein'
p1999
I19
sS'York Mellon'
p2000
I4
sS'Mark Wahlberg'
p2001
I5
sS'Living Center'
p2002
I3
sS'Wetter Than'
p2003
I1
sS'Casey Allen'
p2004
I2
sS'Rand Paul'
p2005
I55
sS'Louis Church'
p2006
I14
sS'Scott Kelly'
p2007
I37
sS'Matthew Broderick'
p2008
I31
sS'Ellie Goulding'
p2009
I36
sS'Alfred Hitchcock'
p2010
I41
sS'Key Ron'
p2011
I1
sS'Carolina Student'
p2012
I1
sS'Link May'
p2013
I6
sS'New Tack'
p2014
I17
sS'New Math'
p2015
I17
sS'Christie Veto'
p2016
I12
sS'Denver Park'
p2017
I2
sS'Police Shutter'
p2018
I6
sS'Candis Cayne'
p2019
I1
sS'Off Trump'
p2020
I4
sS'Will Go'
p2021
I9
sS'Ariel Winter'
p2022
I6
sS'Kyle Snyder'
p2023
I1
sS'Rubio Lands'
p2024
I1
sS'Single Commander'
p2025
I1
sS'Beth Levine'
p2026
I1
sS'Holy Land'
p2027
I1
sS'Black Friday'
p2028
I124
sS'Pilot Union'
p2029
I4
sS'Vessel Sinks'
p2030
I3
sS'City Royals'
p2031
I1
sS'Lawrence Net'
p2032
I2
sS'Down Less'
p2033
I10
sS'Rob Ford'
p2034
I1
sS'Means Southern'
p2035
I6
sS'Ruben Tejada'
p2036
I3
sS'Canada Will'
p2037
I4
sS'Kim Kardashian'
p2038
I48
sS'Push Back'
p2039
I14
sS'Lambert Will'
p2040
I3
sS'Jason Aron'
p2041
I2
sS'Ben Fields'
p2042
I8
sS'Britain Will'
p2043
I1
sS'Can Sue'
p2044
I40
sS'China Hack'
p2045
I3
sS'Oregon College'
p2046
I4
sS'Wins Men'
p2047
I3
sS'Will Soon'
p2048
I33
sS'Louis Smolka'
p2049
I1
sS'Doug Martin'
p2050
I2
sS'Abby Lee'
p2051
I12
sS'New Song'
p2052
I13
sS'Mile Race'
p2053
I2
sS'Jonathan Kraft'
p2054
I1
sS'Leader Manuel'
p2055
I3
sS'Steve Williams'
p2056
I2
sS'Warner May'
p2057
I1
sS'Pare Lofty'
p2058
I8
sS'Janice Dickinson'
p2059
I2
sS'Corey Jones'
p2060
I58
sS'Bella Bond'
p2061
I4
sS'Start First'
p2062
I1
sS'Bieber Has'
p2063
I1
sS'Spray Shows'
p2064
I7
sS'Tim Hardaway'
p2065
I1
sS'Rahm Emanuel'
p2066
I7
sS'Has Cancer'
p2067
I1
sS'Will Hire'
p2068
I5
sS'Bank Head'
p2069
I8
sS'Big Gains'
p2070
I32
sS'Duck Burger'
p2071
I1
sS'World Bank'
p2072
I2
sS'Ends Share'
p2073
I2
sS'Charles Severance'
p2074
I22
sS'Jim Larranaga'
p2075
I1
sS'New Push'
p2076
I21
sS'Slaughter Room'
p2077
I3
sS'Pancake Goes'
p2078
I24
sS'Warhol Diss'
p2079
I2
sS'Stewart Signs'
p2080
I23
sS'Gun Laws'
p2081
I36
sS'Sherrod Brown'
p2082
I1
sS'Goldman Sachs'
p2083
I31
sS'Caitlyn Jenner'
p2084
I30
sS'Million Fine'
p2085
I8
sS'James Earl'
p2086
I48
sS'Long Sells'
p2087
I1
sS'Plane Fire'
p2088
I1
sS'Eliza Gray'
p2089
I141
sS'Sallie Mae'
p2090
I1
sS'Mayor Emanuel'
p2091
I3
sS'End Syria'
p2092
I4
sS'Trudeau New'
p2093
I1
sS'Art Show'
p2094
I19
sS'Prime Minster'
p2095
I1
sS'China Rolls'
p2096
I27
sS'Market Tank'
p2097
I11
sS'Colorado Street'
p2098
I1
sS'Moon Sells'
p2099
I2
sS'Jenner Fears'
p2100
I1
sS'Raymond James'
p2101
I1
sS'Prime Minister'
p2102
I154
sS'Center Stage'
p2103
I3
sS'State Dianna'
p2104
I5
sS'Margaret Thatcher'
p2105
I6
sS'Near Deal'
p2106
I69
sS'Ken Taylor'
p2107
I14
sS'Charlie Crist'
p2108
I4
sS'Street Bulls'
p2109
I3
sS'New Record'
p2110
I2
sS'Right Arm'
p2111
I1
sS'New Wage'
p2112
I4
sS'Sports Said'
p2113
I9
sS'New Weather'
p2114
I4
sS'Boast Jamie'
p2115
I3
sS'Doe Case'
p2116
I1
sS'Steve Ballmer'
p2117
I8
sS'Eric Cantor'
p2118
I3
sS'Double Star'
p2119
I1
sS'South Carolina'
p2120
I91
sS'Real Cost'
p2121
I1
sS'Tracy Morgan'
p2122
I132
sS'China Life'
p2123
I11
sS'Madison Square'
p2124
I9
sS'Ahmed Mohamed'
p2125
I37
sS'Flood Threat'
p2126
I1
sS'Dylan Thomas'
p2127
I1
sS'Space Rock'
p2128
I4
sS'Courts China'
p2129
I20
sS'Deep Sea'
p2130
I1
sS'Dollar Steady'
p2131
I3
sS'Bill Keith'
p2132
I3
sS'Best Chance'
p2133
I4
sS'Joe Jonas'
p2134
I5
sS'Cooper Stars'
p2135
I1
sS'Jordan Peele'
p2136
I6
sS'Down Law'
p2137
I6
sS'Nino Will'
p2138
I1
sS'Leon Bibb'
p2139
I11
sS'Chris Pontius'
p2140
I1
sS'Borders Close'
p2141
I3
sS'Terry Collins'
p2142
I25
sS'David Spade'
p2143
I5
sS'Assad Must'
p2144
I4
sS'Bryce Harper'
p2145
I3
sS'Ricky Gervais'
p2146
I32
sS'Daniel Norris'
p2147
I3
sS'Lauren Daigle'
p2148
I1
sS'Sheila Jordan'
p2149
I52
sS'Golden Age'
p2150
I10
sS'Perry Sing'
p2151
I1
sS'Iron Works'
p2152
I2
sS'Near Session'
p2153
I1
sS'Olivia Wilde'
p2154
I25
sS'Profit Falls'
p2155
I12
sS'Job Market'
p2156
I33
sS'Frankie Hughes'
p2157
I1
sS'Rashid Johnson'
p2158
I5
sS'Aaron Loup'
p2159
I1
sS'Ian Bremmer'
p2160
I251
sS'Woody Allen'
p2161
I1
sS'May Keep'
p2162
I1
sS'Child Goes'
p2163
I21
sS'New App'
p2164
I2
sS'Down Hill'
p2165
I1
sS'Cobble Hill'
p2166
I3
sS'Golden State'
p2167
I5
sS'Justice Party'
p2168
I3
sS'Human Hands'
p2169
I1
sS'China Reveal'
p2170
I6
sS'Oscar Munoz'
p2171
I3
sS'Andrew Left'
p2172
I8
sS'Blood Test'
p2173
I35
sS'Price London'
p2174
I78
sS'Want Old'
p2175
I1
sS'Cesar Chavez'
p2176
I2
sS'Steve Nash'
p2177
I1
sS'Eagles Mascot'
p2178
I1
sS'Gun Battle'
p2179
I1
sS'Gene Test'
p2180
I3
sS'Turns Hillary'
p2181
I2
sS'Bradley Cooper'
p2182
I177
sS'Law Trumps'
p2183
I8
sS'Bear Brunt'
p2184
I25
sS'White Men'
p2185
I2
sS'Nissan Leaf'
p2186
I3
sS'Mike Rizzo'
p2187
I3
sS'Huge Fine'
p2188
I32
sS'Coach Todd'
p2189
I3
sS'Dianna Duran'
p2190
I6
sS'Sachs Will'
p2191
I1
sS'President Jimmy'
p2192
I2
sS'Boots Seal'
p2193
I4
sS'Pat Houston'
p2194
I6
sS'Due Dates'
p2195
I4
sS'Byron Scott'
p2196
I2
sS'Day Marks'
p2197
I4
sS'Christopher Lloyd'
p2198
I4
sS'Ban Gay'
p2199
I4
sS'Found Love'
p2200
I1
sS'Meghan Trainor'
p2201
I5
sS'Congo Police'
p2202
I7
sS'Alicia Keys'
p2203
I15
sS'Hinkley Point'
p2204
I15
sS'Green Bay'
p2205
I99
sS'Favor Vote'
p2206
I4
sS'School Student'
p2207
I20
sS'Longest Running'
p2208
I2
sS'Matt Kuchar'
p2209
I1
sS'Sunday Strike'
p2210
I1
sS'Ian Curtis'
p2211
I2
sS'Katy Perry'
p2212
I21
sS'Zach Hammond'
p2213
I1
sS'Joy Ends'
p2214
I14
sS'Prince Ali'
p2215
I3
sS'Old Town'
p2216
I2
sS'Bieber Storms'
p2217
I1
sS'Barry Trotz'
p2218
I8
sS'Deal Wins'
p2219
I9
sS'Manuel Rosales'
p2220
I3
sS'Curry Stops'
p2221
I58
sS'Jack Ma'
p2222
I1
sS'Plane Has'
p2223
I25
sS'Ted Cruz'
p2224
I87
sS'Rachel Dolezal'
p2225
I3
sS'Barry Allen'
p2226
I1
sS'Back Door'
p2227
I3
sS'Blood Bath'
p2228
I2
sS'Canning Todd'
p2229
I4
sS'Kardashian Lamar'
p2230
I3
sS'Short Hair'
p2231
I70
sS'Clock Back'
p2232
I16
sS'Win So'
p2233
I24
sS'New Orleans'
p2234
I13
sS'Pope Francis'
p2235
I90
sS'Bacon Cancer'
p2236
I3
sS'Harris Wins'
p2237
I1
sS'Albany Student'
p2238
I1
sS'Jason Chimera'
p2239
I1
sS'Richard Cardamone'
p2240
I18
sS'San Quentin'
p2241
I2
sS'President Assad'
p2242
I22
sS'Abraham Lincoln'
p2243
I97
sS'Dan Campbell'
p2244
I4
sS'Tiana Stewart'
p2245
I1
sS'Crew Members'
p2246
I19
sS'Honor Bill'
p2247
I1
sS'Dion Lewis'
p2248
I1
sS'Ryan Lewis'
p2249
I94
sS'Morning Risk'
p2250
I183
sS'Too Late'
p2251
I1
sS'Rick Carlisle'
p2252
I1
sS'Bobbi Kristina'
p2253
I22
sS'Start Life'
p2254
I1
sS'Jerry Sandusky'
p2255
I4
sS'Stars George'
p2256
I1
sS'Daisy Ridley'
p2257
I12
sS'Steve Gleason'
p2258
I1
sS'Arnold Klein'
p2259
I5
sS'Adrian Peterson'
p2260
I3
sS'Spring Valley'
p2261
I5
sS'East Europe'
p2262
I5
sS'Running Wild'
p2263
I2
sS'New Head'
p2264
I1
sS'Lamar Has'
p2265
I3
sS'China Coke'
p2266
I1
sS'Pink Hair'
p2267
I17
sS'Howard Stern'
p2268
I2
sS'Holmes Lake'
p2269
I3
sS'Richard Sherman'
p2270
I1
sS'Cate Blanchet'
p2271
I1
sS'Lehigh Valley'
p2272
I1
sS'May Stay'
p2273
I1
sS'Western Union'
p2274
I22
sS'Show Big'
p2275
I7
sS'Top Model'
p2276
I3
sS'Night Walk'
p2277
I1
sS'Gregg Popovich'
p2278
I9
sS'Tennessee State'
p2279
I47
sS'George Bush'
p2280
I14
sS'World War'
p2281
I62
sS'Means Danger'
p2282
I2
sS'Jersey Senate'
p2283
I13
sS'Pacific Deal'
p2284
I1
sS'Hon Hai'
p2285
I28
sS'Frank Sinatra'
p2286
I3
sS'March Held'
p2287
I4
sS'Profit Hurt'
p2288
I4
sS'Street Artist'
p2289
I3
sS'Sierra Leone'
p2290
I1
sS'Friendly Tone'
p2291
I11
sS'Mark Turgeon'
p2292
I2
sS'Most Stuck'
p2293
I3
sS'Said So'
p2294
I1
sS'Paul Clement'
p2295
I1
sS'Denzel Washington'
p2296
I4
sS'Cross Border'
p2297
I1
sS'Jersey Fire'
p2298
I1
sS'Will Sell'
p2299
I3
sS'Story Season'
p2300
I1
sS'Paul Ryan'
p2301
I469
sS'Hefty China'
p2302
I1
sS'Dollar May'
p2303
I2
sS'Clinton Sees'
p2304
I11
sS'Strong Summer'
p2305
I29
sS'Alliance Near'
p2306
I1
sS'Will Step'
p2307
I4
sS'Bond Case'
p2308
I2
sS'Daniel Webster'
p2309
I1
sS'Must Be'
p2310
I1
sS'Starring Neil'
p2311
I1
sS'Bryan Greenberg'
p2312
I1
sS'Rae Jepsen'
p2313
I1
sS'Faro Crew'
p2314
I2
sS'Come Winter'
p2315
I69
sS'Apple Profit'
p2316
I4
sS'Sandra Bullock'
p2317
I89
sS'Ball Rolling'
p2318
I2
sS'Jamaica Bay'
p2319
I17
sS'Gains New'
p2320
I4
sS'House Quiet'
p2321
I1
sS'Cake Balls'
p2322
I3
sS'City Police'
p2323
I4
sS'Gasquet Swiss'
p2324
I1
sS'High Strain'
p2325
I1
sS'Blake Griffin'
p2326
I3
sS'Jenni Farley'
p2327
I2
sS'Dell May'
p2328
I2
sS'Joe Lombardi'
p2329
I2
sS'Tristan Thompson'
p2330
I5
sS'Hurt Him'
p2331
I12
sS'Trudeau Win'
p2332
I22
sS'Carson Elrod'
p2333
I5
sS'Rotunda Go'
p2334
I13
sS'Red Zone'
p2335
I45
sS'Tony Abbott'
p2336
I3
sS'Chase Down'
p2337
I1
sS'Mayor Bill'
p2338
I5
sS'Jackie Chan'
p2339
I1
sS'Say Singer'
p2340
I1
sS'Kevin Johnson'
p2341
I9
sS'Better Than'
p2342
I2
sS'No New'
p2343
I3
sS'Labs Profit'
p2344
I1
sS'James Staley'
p2345
I1
sS'Shape City'
p2346
I5
sS'Cheese Plate'
p2347
I2
sS'Blue Ivy'
p2348
I5
sS'Jobs Rose'
p2349
I23
sS'Ruth Bader'
p2350
I30
sS'Say Driver'
p2351
I8
sS'Ray Lewis'
p2352
I3
sS'Keenan Allen'
p2353
I2
sS'Jennifer Lopez'
p2354
I1
sS'New Start'
p2355
I1
sS'Better Standard'
p2356
I3
sS'New Trial'
p2357
I1
sS'Lessig Ends'
p2358
I1
sS'Rousey Train'
p2359
I1
sS'Paul West'
p2360
I21
sS'Friday Night'
p2361
I1
sS'Work Ran'
p2362
I12
sS'Will Face'
p2363
I1
sS'Mock Drake'
p2364
I3
sS'School Gun'
p2365
I1
sS'End Polio'
p2366
I1
sS'Arthur Miller'
p2367
I6
sS'Russell Martin'
p2368
I9
sS'Mayoral Race'
p2369
I8
sS'Takes Weight'
p2370
I5
sS'Care Plan'
p2371
I2
sS'Chris Cooley'
p2372
I1
sS'Start November'
p2373
I3
sS'Royal Bank'
p2374
I8
sS'Women Start'
p2375
I1
sS'Gate Fall'
p2376
I1
sS'Brew Coffee'
p2377
I3
sS'Fake Ben'
p2378
I1
sS'White Shark'
p2379
I42
sS'Serve Him'
p2380
I4
sS'Market Sees'
p2381
I15
sS'Roy Hamilton'
p2382
I23
sS'Battle Rain'
p2383
I1
sS'Real Life'
p2384
I119
sS'New Speaker'
p2385
I5
sS'Worker Dies'
p2386
I4
sS'Carolina Officer'
p2387
I10
sS'Lose Part'
p2388
I3
sS'New Harry'
p2389
I2
sS'Jarrett Stidham'
p2390
I1
sS'South Asia'
p2391
I15
sS'Major New'
p2392
I6
sS'Rough Life'
p2393
I3
sS'Angelina Jolie'
p2394
I61
sS'Copper Lower'
p2395
I1
sS'Nick Mangold'
p2396
I1
sS'Hillary Lied'
p2397
I1
sS'Kardashian Goes'
p2398
I1
sS'Stone Mountain'
p2399
I1
sS'Cate Blanchett'
p2400
I2
sS'Mark Yeager'
p2401
I1
sS'Head East'
p2402
I2
sS'Boris Johnson'
p2403
I1
sS'Aaron Gibson'
p2404
I4
sS'Renault Board'
p2405
I10
sS'Way Monday'
p2406
I1
sS'South Lake'
p2407
I1
sS'Sarah Waters'
p2408
I70
sS'Crafts Jobs'
p2409
I1
sS'Will Begin'
p2410
I6
sS'State Campus'
p2411
I10
sS'Bring Minor'
p2412
I1
sS'Tennis Champion'
p2413
I4
sS'Ron Paul'
p2414
I11
sS'David Beckham'
p2415
I69
sS'Long Way'
p2416
I14
sS'First New'
p2417
I14
sS'Lionel Richie'
p2418
I176
sS'Sanders Spar'
p2419
I8
sS'Car Maker'
p2420
I1
sS'Life Church'
p2421
I17
sS'Day Care'
p2422
I7
sS'Shook Israel'
p2423
I1
sS'Kirchner Ally'
p2424
I2
sS'New Veto'
p2425
I1
sS'English Queen'
p2426
I42
sS'Grande Speaks'
p2427
I7
sS'Senate Bill'
p2428
I2
sS'Bayer Lowers'
p2429
I2
sS'May Plan'
p2430
I6
sS'Blaine Gabbert'
p2431
I7
sS'Dan Jennings'
p2432
I1
sS'John Kerry'
p2433
I33
sS'Sue City'
p2434
I5
sS'Laura Bush'
p2435
I3
sS'Adam Selman'
p2436
I2
sS'Chandler Stephenson'
p2437
I1
sS'Slain New'
p2438
I5
sS'Bulls Player'
p2439
I63
sS'Henry Hill'
p2440
I27
sS'Child Star'
p2441
I27
sS'Kylie Jenner'
p2442
I63
sS'Dial Down'
p2443
I1
sS'Way Too'
p2444
I1
sS'Stapleton Win'
p2445
I1
sS'Square Garden'
p2446
I9
sS'Them High'
p2447
I4
sS'Coach Hugh'
p2448
I2
sS'Denny Hamlin'
p2449
I2
sS'Melissa Chiu'
p2450
I26
sS'Sees No'
p2451
I13
sS'Harry Potter'
p2452
I131
sS'Him Well'
p2453
I4
sS'Fiscal Board'
p2454
I5
sS'Ship Deal'
p2455
I3
sS'Never Go'
p2456
I1
sS'Hudson City'
p2457
I1
sS'Has Harsh'
p2458
I2
sS'Trent Williams'
p2459
I4
sS'Michael Dell'
p2460
I105
sS'High Schooler'
p2461
I21
sS'Michael Cleveland'
p2462
I3
sS'Rico Aid'
p2463
I7
sS'Shows Gains'
p2464
I1
sS'Hunter College'
p2465
I5
sS'Star Al'
p2466
I1
sS'New Face'
p2467
I27
sS'Kennedy Wilson'
p2468
I9
sS'Pay Her'
p2469
I1
sS'Son Albus'
p2470
I1
sS'Top Art'
p2471
I4
sS'Kendall Jenner'
p2472
I33
sS'Luke Walton'
p2473
I1
sS'Kardashian Shows'
p2474
I4
sS'Ben Sasse'
p2475
I2
sS'Coast Ports'
p2476
I4
sS'Days Star'
p2477
I1
sS'Morgan Stanley'
p2478
I63
sS'Fee Hikes'
p2479
I1
sS'Malcolm Brogdon'
p2480
I2
sS'West Africa'
p2481
I5
sS'Bank Stands'
p2482
I1
sS'Church Drummer'
p2483
I1
sS'Music Hall'
p2484
I1
sS'Wes Anderson'
p2485
I3
sS'Marco Estrada'
p2486
I3
sS'Rhode Island'
p2487
I23
sS'Hillary Be'
p2488
I23
sS'Quintin Berry'
p2489
I1
sS'Tyler Clippard'
p2490
I40
sS'Michael Collins'
p2491
I1
sS'Eastern Flank'
p2492
I3
sS'Day Arthur'
p2493
I3
sS'Santa Claus'
p2494
I105
sS'Jason Hatcher'
p2495
I1
sS'Left Ahmad'
p2496
I11
sS'Viola Davis'
p2497
I5
sS'Spikes Monday'
p2498
I1
sS'Trudeau Era'
p2499
I7
sS'Sandra Bland'
p2500
I11
sS'Weather Gang'
p2501
I99
sS'Sharp Tone'
p2502
I15
sS'Start Eddie'
p2503
I1
sS'Stephan James'
p2504
I1
sS'Say Trudeau'
p2505
I1
sS'Stephen Spender'
p2506
I19
sS'Trevor Noah'
p2507
I103
sS'Ralph Lauren'
p2508
I50
sS'Lands Punches'
p2509
I1
sS'Odom Call'
p2510
I2
sS'Paul Smith'
p2511
I8
sS'Florida Farm'
p2512
I1
sS'Trenton Robinson'
p2513
I1
sS'Maine Nurse'
p2514
I1
sS'Toy Hall'
p2515
I5
sS'Writer Bob'
p2516
I4
sS'War Seek'
p2517
I25
sS'Del Toro'
p2518
I5
sS'Portugal Prime'
p2519
I14
sS'Evangeline Lilly'
p2520
I2
sS'Orange Line'
p2521
I3
sS'Carrie Brownstein'
p2522
I81
sS'Salvador Perez'
p2523
I5
sS'Melo Trimble'
p2524
I2
sS'Jeff Gordon'
p2525
I3
sS'Big Shoulders'
p2526
I10
sS'Lindsay Lohan'
p2527
I105
sS'Puerto Rico'
p2528
I211
sS'Little Red'
p2529
I1
sS'Carolyn Colvin'
p2530
I1
sS'Single Child'
p2531
I1
sS'Sacramento Kings'
p2532
I1
sS'Andrew Colt'
p2533
I5
sS'Elder Bush'
p2534
I15
sS'New Spark'
p2535
I1
sS'Modest Start'
p2536
I7
sS'Louis Arch'
p2537
I18
sS'Mill Mock'
p2538
I3
sS'New Strength'
p2539
I3
sS'Reach South'
p2540
I9
sS'Media Study'
p2541
I1
sS'Colorado Town'
p2542
I1
sS'Sidney Crosby'
p2543
I1
sS'Buffalo Wild'
p2544
I1
sS'Craft Beer'
p2545
I1
sS'Island Chain'
p2546
I5
sS'Range Seen'
p2547
I2
sS'Carli Lloyd'
p2548
I4
sS'Jim Kelly'
p2549
I1
sS'Will Fix'
p2550
I3
sS'Brian Donovan'
p2551
I45
sS'Case Sees'
p2552
I1
sS'Bill Williams'
p2553
I10
sS'Has Kepler'
p2554
I10
sS'Arabian Sea'
p2555
I1
sS'Argentina Vote'
p2556
I7
sS'Market Share'
p2557
I1
sS'Jesse Owens'
p2558
I1
sS'First Lady'
p2559
I40
sS'Foil Wrigley'
p2560
I3
sS'Vice Chancellor'
p2561
I1
sS'Nick Jonas'
p2562
I3
sS'Steve Jobs'
p2563
I61
sS'Jimmy Morales'
p2564
I10
sS'Royal Power'
p2565
I2
sS'Amber Alert'
p2566
I8
sS'Goldman Banker'
p2567
I1
sS'Warner Profit'
p2568
I3
sS'Goes Home'
p2569
I4
sS'City Hall'
p2570
I22
sS'Grant China'
p2571
I11
sS'Lam Buys'
p2572
I3
sS'Chris Lloyd'
p2573
I5
sS'Legacy Will'
p2574
I1
sS'Ink Deal'
p2575
I2
sS'Marilyn Monroe'
p2576
I3
sS'New Route'
p2577
I2
sS'Phil Kessel'
p2578
I1
sS'Norman Reedus'
p2579
I4
sS'Clinton Speaks'
p2580
I10
sS'Jay Ratliff'
p2581
I1
sS'Stewart Cover'
p2582
I1
sS'Swiss Town'
p2583
I2
sS'John Boehner'
p2584
I117
sS'Alvin Gentry'
p2585
I1
sS'Hang Seng'
p2586
I3
sS'Edna Lewis'
p2587
I6
sS'Too Loud'
p2588
I5
sS'Alfred Blue'
p2589
I1
sS'Markus Vinson'
p2590
I1
sS'Party Victory'
p2591
I6
sS'Luther King'
p2592
I3
sS'David Hoppe'
p2593
I2
sS'New Glimpse'
p2594
I1
sS'Eli Manning'
p2595
I22
sS'Say Sanders'
p2596
I24
sS'Davis Polk'
p2597
I119
sS'Lay Off'
p2598
I1
sS'New San'
p2599
I11
sS'Back Warning'
p2600
I6
sS'Flies South'
p2601
I20
sS'Schumer Mock'
p2602
I85
sS'Coach David'
p2603
I1
sS'Alex Ferguson'
p2604
I31
sS'Faster Pace'
p2605
I6
sS'Older Guys'
p2606
I9
sS'Walter Graf'
p2607
I7
sS'Eugene Smith'
p2608
I5
sS'Hollywood Home'
p2609
I3
sS'Free Will'
p2610
I11
sS'Grills Bank'
p2611
I60
sS'Keith Yandle'
p2612
I1
sS'Deal Will'
p2613
I3
sS'Cicely Tyson'
p2614
I48
sS'Late Sun'
p2615
I7
sS'Times Too'
p2616
I1
sS'Ryan Lands'
p2617
I12
sS'Emma Donoghue'
p2618
I1
sS'Freddie Roach'
p2619
I1
sS'Jim Harbaugh'
p2620
I11
sS'Prayer Hall'
p2621
I3
sS'John Malone'
p2622
I1
sS'Nick Young'
p2623
I1
sS'China Market'
p2624
I1
sS'Blind Tell'
p2625
I1
sS'May Delay'
p2626
I2
sS'Aaron Huey'
p2627
I2
sS'Lambert Field'
p2628
I2
sS'Age Well'
p2629
I93
sS'State Media'
p2630
I17
sS'Tracey Stewart'
p2631
I2
sS'Sonny Dykes'
p2632
I1
sS'Job Harder'
p2633
I5
sS'Water Main'
p2634
I1
sS'Christie Brinkley'
p2635
I1
sS'End Gun'
p2636
I2
sS'Will Pay'
p2637
I2
sS'Hacking Case'
p2638
I3
sS'Gray Market'
p2639
I1
sS'Lot Riding'
p2640
I4
sS'Ricardo Lockette'
p2641
I3
sS'Scale Back'
p2642
I22
sS'Kardashian Odom'
p2643
I3
sS'Anne Arundel'
p2644
I21
sS'Joni Mitchell'
p2645
I1
sS'Steve Kerr'
p2646
I1
sS'Southern Comfort'
p2647
I6
sS'Study Heart'
p2648
I9
sS'Ariana Grande'
p2649
I18
sS'New Pacific'
p2650
I3
sS'Joe Lonsdale'
p2651
I7
sS'Glenn Frey'
p2652
I19
sS'Walter Isaacson'
p2653
I10
sS'Valley High'
p2654
I10
sS'South China'
p2655
I262
sS'Debbie Reynolds'
p2656
I43
sS'Look Back'
p2657
I7
sS'Angeles City'
p2658
I1
sS'Daniel Tosh'
p2659
I18
sS'End Flint'
p2660
I1
sS'Beer World'
p2661
I1
sS'Derrick Henry'
p2662
I1
sS'Todd Bowles'
p2663
I5
sS'Nissan Takes'
p2664
I1
sS'Hall Will'
p2665
I1
sS'Julius Randle'
p2666
I1
sS'Bruce Hyde'
p2667
I4
sS'Dance Party'
p2668
I1
sS'Tejada Speaks'
p2669
I3
sS'Boots Alliance'
p2670
I4
sS'Byron Wien'
p2671
I21
sS'Trump Speaks'
p2672
I1
sS'Theodore Roosevelt'
p2673
I3
sS'Bear Down'
p2674
I1
sS'Gain Strength'
p2675
I1
sS'Era Found'
p2676
I2
sS'James Turrell'
p2677
I2
sS'Ryan Mallett'
p2678
I4
sS'Sydney Keating'
p2679
I1
sS'America Has'
p2680
I8
sS'Vernon Davis'
p2681
I13
sS'Florida Beach'
p2682
I1
sS'School Lunch'
p2683
I2
sS'Deal Falls'
p2684
I21
sS'Off West'
p2685
I2
sS'Home Strong'
p2686
I24
sS'New Tally'
p2687
I1
sS'Nellie Hertz'
p2688
I1
sS'Love Ranch'
p2689
I5
sS'Green Hair'
p2690
I16
sS'Africa Went'
p2691
I1
sS'Shows Africa'
p2692
I20
sS'Baltimore Ravens'
p2693
I6
sS'Be Hard'
p2694
I2
sS'New Bond'
p2695
I1
sS'Maryland State'
p2696
I1
sS'Rise Off'
p2697
I1
sS'Mike Mack'
p2698
I18
sS'Red Wagon'
p2699
I1
sS'View Record'
p2700
I5
sS'Joe Batt'
p2701
I11
sS'Emily Blunt'
p2702
I1
sS'Michael Jordan'
p2703
I27
sS'Mary Jane'
p2704
I49
sS'Freddie Gray'
p2705
I17
sS'Single Off'
p2706
I1
sS'First Red'
p2707
I8
sS'Harrison Ford'
p2708
I5
sS'Stops Nadal'
p2709
I1
sS'Small Screen'
p2710
I1
sS'Ice Age'
p2711
I12
sS'Emily Haines'
p2712
I1
sS'New Starring'
p2713
I1
sS'John Berg'
p2714
I5
sS'Arlington Board'
p2715
I4
sS'Ruth Porat'
p2716
I1
sS'Will Fly'
p2717
I1
sS'Thomas Blatt'
p2718
I20
sS'Plate Case'
p2719
I1
sS'South River'
p2720
I2
sS'House Suit'
p2721
I1
sS'Carson Rising'
p2722
I13
sS'Thornton Star'
p2723
I1
sS'Williams Ran'
p2724
I1
sS'West Palm'
p2725
I1
sS'Justin Timberlake'
p2726
I24
sS'Washington State'
p2727
I25
sS'Pat Robertson'
p2728
I16
sS'Mike Freeman'
p2729
I1
sS'Edge Lower'
p2730
I11
sS'Foster Care'
p2731
I6
sS'Heads Back'
p2732
I1
sS'Mini Bautista'
p2733
I3
sS'Bob Gale'
p2734
I4
sS'Hurt Hillary'
p2735
I1
sS'Margaret Cho'
p2736
I18
sS'Travis Rudolph'
p2737
I1
sS'Elisa Port'
p2738
I4
sS'Island Seek'
p2739
I7
sS'Berry Files'
p2740
I2
sS'India Uber'
p2741
I3
sS'Second Day'
p2742
I1
sS'David Krejci'
p2743
I1
sS'May Hand'
p2744
I1
sS'Bill Clinton'
p2745
I20
sS'Menzel Sing'
p2746
I1
sS'Jimmy Butler'
p2747
I7
sS'Cargill Stake'
p2748
I1
sS'Off Stage'
p2749
I1
sS'Kiss Drew'
p2750
I5
sS'Staten Island'
p2751
I124
sS'Carey Mulligan'
p2752
I78
sS'Mary Karr'
p2753
I25
sS'Jake Bailey'
p2754
I8
sS'Block Daily'
p2755
I2
sS'Do Men'
p2756
I12
sS'Star Melissa'
p2757
I1
sS'Bring New'
p2758
I1
sS'Hurt Donald'
p2759
I5
sS'New Campus'
p2760
I1
sS'Christopher Stevens'
p2761
I20
sS'Seen Short'
p2762
I2
sS'Bob Ross'
p2763
I17
sS'Brad Pitt'
p2764
I10
sS'Heist Trial'
p2765
I1
sS'Jim Zorn'
p2766
I2
sS'Blind Eye'
p2767
I17
sS'Will Paul'
p2768
I2
sS'Been Wider'
p2769
I1
sS'Sinn Fein'
p2770
I1
sS'Bing Search'
p2771
I1
sS'Back Goes'
p2772
I1
sS'Key Moment'
p2773
I13
sS'China Ranks'
p2774
I1
sS'Jeremy Hunt'
p2775
I1
sS'Ryan Tannehill'
p2776
I1
sS'Fire Hero'
p2777
I4
sS'Rather Than'
p2778
I32
sS'Sample Trial'
p2779
I1
sS'Fort Myers'
p2780
I5
sS'Marie Kondo'
p2781
I2
sS'Surprise Landing'
p2782
I1
sS'Roger Mathews'
p2783
I6
sS'Store Credit'
p2784
I4
sS'Trudeau Won'
p2785
I1
sS'Cleveland Browns'
p2786
I5
sS'Steve Wozniak'
p2787
I2
sS'Wm Patrick'
p2788
I24
sS'Heinz Plant'
p2789
I1
sS'Delaware Dominion'
p2790
I38
sS'Rose Faster'
p2791
I5
sS'Winfrey Rides'
p2792
I16
sS'Ronda Rousey'
p2793
I136
sS'Little Charm'
p2794
I6
sS'Downs Drone'
p2795
I9
sS'York City'
p2796
I166
sS'Dennis Hof'
p2797
I2
sS'Rose Queen'
p2798
I1
sS'Worth Reading'
p2799
I1
sS'Teddy Roosevelt'
p2800
I3
sS'Police Killings'
p2801
I3
sS'Gain Too'
p2802
I7
sS'Free Soda'
p2803
I2
sS'Brooklyn Doctor'
p2804
I4
sS'Jordan Clarkson'
p2805
I3
sS'Sees Work'
p2806
I5
sS'Floyd Cook'
p2807
I1
sS'Look Ma'
p2808
I1
sS'Human Hand'
p2809
I1
sS'Weather Channel'
p2810
I55
sS'Rides Loan'
p2811
I3
sS'Pat Haden'
p2812
I7
sS'Sloan Kettering'
p2813
I17
sS'Surface Mini'
p2814
I4
sS'Larry David'
p2815
I82
sS'Weight Loss'
p2816
I1
sS'Post Drew'
p2817
I1
sS'Officer Daniel'
p2818
I1
sS'Kareem Walker'
p2819
I1
sS'Takes Stake'
p2820
I1
sS'Ice Rather'
p2821
I1
sS'New Job'
p2822
I3
sS'Low Fuel'
p2823
I25
sS'See No'
p2824
I4
sS'Travis Benjamin'
p2825
I1
sS'Long Island'
p2826
I42
sS'Lamont Peterson'
p2827
I13
sS'Younger Brain'
p2828
I3
sS'Shawn Mendes'
p2829
I1
sS'Davis Marry'
p2830
I4
sS'Wider Pool'
p2831
I2
sS'Mom Gave'
p2832
I74
sS'Landmark Metro'
p2833
I2
sS'Rod Stewart'
p2834
I80
sS'New Deal'
p2835
I1
sS'David West'
p2836
I20
sS'Ivy City'
p2837
I21
sS'Mike Maddux'
p2838
I2
sS'Lake Erie'
p2839
I30
sS'Quick End'
p2840
I1
sS'Gabe Kapler'
p2841
I3
sS'Morris Lie'
p2842
I5
sS'Ryan House'
p2843
I3
sS'Power Market'
p2844
I1
sS'China Southern'
p2845
I1
sS'Joe Girardi'
p2846
I1
sS'Joanna Newsom'
p2847
I4
sS'Huey Lewis'
p2848
I2
sS'Ice Gain'
p2849
I2
sS'Cameron Wake'
p2850
I4
sS'Chris Stapleton'
p2851
I26
sS'Face Trial'
p2852
I3
sS'Lou Reed'
p2853
I4
sS'Antonio Campus'
p2854
I1
sS'Off Monday'
p2855
I1
sS'Seen Able'
p2856
I1
sS'Startup Will'
p2857
I22
sS'Off Canada'
p2858
I3
sS'Jordan Reed'
p2859
I7
sS'Lambert Rocks'
p2860
I1
sS'Michael Coscia'
p2861
I2
sS'Say Common'
p2862
I1
sS'Martinez File'
p2863
I2
sS'Lady Sing'
p2864
I39
sS'Paris Masters'
p2865
I3
sS'Falls Short'
p2866
I1
sS'Shows Ben'
p2867
I1
sS'Say Mom'
p2868
I4
sS'Go Back'
p2869
I2
sS'Figures Show'
p2870
I2
sS'Jim Hackett'
p2871
I3
sS'Surprise Drop'
p2872
I2
sS'William Ackman'
p2873
I2
sS'Steel Mill'
p2874
I4
sS'Jared Leto'
p2875
I1
sS'James Dean'
p2876
I4
sS'Million Stake'
p2877
I2
sS'Party Turns'
p2878
I2
sS'Malcolm Turnbull'
p2879
I1
sS'Student Dies'
p2880
I2
sS'See Donald'
p2881
I1
sS'Anna Stubblefield'
p2882
I70
sS'Bing Bong'
p2883
I3
sS'Danny Meyer'
p2884
I34
sS'Ship May'
p2885
I13
sS'Terp Torrey'
p2886
I1
sS'Win Means'
p2887
I21
sS'Fox Sports'
p2888
I8
sS'English Home'
p2889
I16
sS'Postal Service'
p2890
I11
sS'Jeff Jacobson'
p2891
I1
sS'Luther Burden'
p2892
I16
sS'Paul Goes'
p2893
I6
sS'Albany Will'
p2894
I9
sS'James Harden'
p2895
I9
sS'Manner Has'
p2896
I13
sS'Maker Sees'
p2897
I1
sS'Apple Worker'
p2898
I1
sS'Seeds First'
p2899
I5
sS'Randolph Holder'
p2900
I21
sS'Howard Kendall'
p2901
I2
sS'Nobel Peace'
p2902
I13
sS'Tyler Oakley'
p2903
I1
sS'Chris Culliver'
p2904
I1
sS'Boxer Prichard'
p2905
I1
sS'Bad Blood'
p2906
I2
sS'Money Race'
p2907
I9
sS'Key Part'
p2908
I5
sS'Charlotte Alter'
p2909
I7
sS'New Prime'
p2910
I22
sS'Jersey Shore'
p2911
I13
sS'China Home'
p2912
I1
sS'Travis Scott'
p2913
I1
sS'Magic Leap'
p2914
I4
sS'Bottom Lines'
p2915
I2
sS'Rex Ryan'
p2916
I7
sS'Cover Taylor'
p2917
I52
sS'Pell Grant'
p2918
I1
sS'Brooklyn Stage'
p2919
I1
sS'Bank Power'
p2920
I9
sS'Joan Lunden'
p2921
I1
sS'Record Straight'
p2922
I24
sS'Florida Officer'
p2923
I2
sS'Bleecker Street'
p2924
I10
sS'Single Day'
p2925
I5
sS'Claus Save'
p2926
I1
sS'Bigger Than'
p2927
I25
sS'Right Has'
p2928
I3
sS'Felix Diaz'
p2929
I12
sS'Done Better'
p2930
I7
sS'Brooklyn Judge'
p2931
I2
sS'Ask Real'
p2932
I3
sS'Rough Patch'
p2933
I3
sS'Purchase Flood'
p2934
I1
sS'Off Plane'
p2935
I8
sS'First Loss'
p2936
I1
sS'Bear Stroll'
p2937
I46
sS'New Plan'
p2938
I1
sS'Storm Patricia'
p2939
I17
sS'Schumer Will'
p2940
I2
sS'Keith Haring'
p2941
I1
sS'Oren Peli'
p2942
I25
sS'Michael Conforto'
p2943
I2
sS'Sandusky Due'
p2944
I1
sS'Ask Amy'
p2945
I2
sS'Richard Montgomery'
p2946
I1
sS'Station Marks'
p2947
I1
sS'Rocky Market'
p2948
I1
sS'Bob Cooter'
p2949
I3
sS'American Bible'
p2950
I2
sS'Signs Gay'
p2951
I4
sS'Noah Hawley'
p2952
I1
sS'New Single'
p2953
I4
sS'Michael Moore'
p2954
I2
sS'Pay Falls'
p2955
I4
sS'Stock Sinks'
p2956
I10
sS'Diego Coast'
p2957
I1
sS'Catholic Church'
p2958
I51
sS'Stan Lee'
p2959
I36
sS'Simon Shuster'
p2960
I7
sS'Record Low'
p2961
I4
sS'Tyler Ennis'
p2962
I1
sS'Daily Show'
p2963
I5
sS'Chris Davis'
p2964
I79
sS'Million New'
p2965
I1
sS'Chris Rock'
p2966
I59
sS'Sees Large'
p2967
I1
sS'Study Links'
p2968
I5
sS'Jimmy Fallon'
p2969
I335
sS'Harper Victory'
p2970
I1
sS'Must Double'
p2971
I1
sS'Frank Bruni'
p2972
I498
sS'John Lennon'
p2973
I3
sS'Daily Life'
p2974
I46
sS'David Cameron'
p2975
I60
sS'Bud Black'
p2976
I53
sS'Max Scherzer'
p2977
I1
sS'Russell Simmons'
p2978
I16
sS'Be Tone'
p2979
I6
sS'Ed Lee'
p2980
I4
sS'Paul Ebert'
p2981
I5
sS'Chamber Speaks'
p2982
I1
sS'Ryan Goins'
p2983
I1
sS'Florin High'
p2984
I1
sS'Public Search'
p2985
I4
sS'Little League'
p2986
I21
sS'England Takes'
p2987
I1
sS'Luis Suarez'
p2988
I1
sS'Seth Mosely'
p2989
I1
sS'New York'
p2990
I1141
sS'Marine Pilot'
p2991
I1
sS'Face New'
p2992
I15
sS'Street Metro'
p2993
I1
sS'Mayor Ivy'
p2994
I2
sS'Coast President'
p2995
I12
sS'Space Every'
p2996
I1
sS'Kate Murphy'
p2997
I1
sS'Richard Branson'
p2998
I3
sS'Harm Than'
p2999
I5
sS'Street Band'
p3000
I3
sS'Rob Manfred'
p3001
I1
sS'Man March'
p3002
I2
sS'Lafayette Square'
p3003
I1
sS'Roger Lowenstein'
p3004
I51
sS'Season Will'
p3005
I1
sS'Africa Bright'
p3006
I1
sS'Low Price'
p3007
I2
sS'Becton Dickson'
p3008
I1
sS'Boston Bruins'
p3009
I2
sS'Luther Adams'
p3010
I10
sS'Iesha Kenney'
p3011
I1
sS'Ryan Adams'
p3012
I1
sS'Salmon May'
p3013
I30
sS'Winter Weather'
p3014
I1
sS'Curt Schilling'
p3015
I1
sS'Chelsea Stars'
p3016
I4
sS'Water Leak'
p3017
I5
sS'Vernon Place'
p3018
I2
sS'Wins Big'
p3019
I1
sS'Jon Jones'
p3020
I8
sS'Miranda Lambert'
p3021
I14
sS'Kate Lanphear'
p3022
I20
sS'Harlem Led'
p3023
I2
sS'Too Hard'
p3024
I35
sS'Bank City'
p3025
I9
sS'John Thain'
p3026
I12
sS'Well Soon'
p3027
I10
sS'Eve Hewson'
p3028
I2
sS'Call Marco'
p3029
I45
sS'Prince George'
p3030
I68
sS'Mark Ruffalo'
p3031
I8
sS'Hudson Valley'
p3032
I10
sS'Prichard Colon'
p3033
I2
sS'Martell Webster'
p3034
I5
sS'Major Union'
p3035
I1
sS'No Threat'
p3036
I2
sS'Police Work'
p3037
I12
sS'Huge Lego'
p3038
I1
sS'Bottom Line'
p3039
I26
sS'Speaker Hastert'
p3040
I14
sS'Anthony Davis'
p3041
I11
sS'Princess Kate'
p3042
I5
sS'Tommy Hilfiger'
p3043
I9
sS'Will Hillary'
p3044
I36
sS'Gun Found'
p3045
I7
sS'David Mitchell'
p3046
I35
sS'Cliff Pennington'
p3047
I2
sS'Beverly Hills'
p3048
I19
sS'Don Lemon'
p3049
I8
sS'Daniel Cormier'
p3050
I2
sS'Ernie Kent'
p3051
I1
sS'Chill Room'
p3052
I1
sS'Clinton Record'
p3053
I1
sS'Drop Than'
p3054
I4
sS'Startup Square'
p3055
I20
sS'Money Than'
p3056
I2
sS'Nurse Kaci'
p3057
I1
sS'Dez Bryant'
p3058
I8
sS'Charles Schulz'
p3059
I2
sS'Channel Deal'
p3060
I3
sS'Reading Bible'
p3061
I49
sS'Reach Record'
p3062
I1
sS'Has Ben'
p3063
I13
sS'Jerome Kass'
p3064
I54
sS'Carlin Bason'
p3065
I1
sS'Jose Bautista'
p3066
I12
sS'Disney Short'
p3067
I1
sS'Sheriff Deputy'
p3068
I1
sS'Jason Collins'
p3069
I1
sS'Police Seek'
p3070
I1
sS'Minister Victor'
p3071
I1
sS'James Martin'
p3072
I1
sS'Drone Cargo'
p3073
I1
sS'Cory Wells'
p3074
I5
sS'Pistorius Will'
p3075
I3
sS'Short Fuse'
p3076
I1
sS'Florida State'
p3077
I12
sS'Jersey Race'
p3078
I1
sS'Profit View'
p3079
I1
sS'Hill Sunday'
p3080
I2
sS'Kinder Morgan'
p3081
I111
sS'Lamar Odom'
p3082
I494
sS'Low Voter'
p3083
I1
sS'New Light'
p3084
I1
sS'Silver Lake'
p3085
I1
sS'Drop Cable'
p3086
I1
sS'Jim Webb'
p3087
I87
sS'New Poll'
p3088
I7
sS'Elizabeth Holmes'
p3089
I7
sS'Ho Chi'
p3090
I9
sS'Fall Box'
p3091
I1
sS'Jason Whitlock'
p3092
I1
sS'Drop Donald'
p3093
I20
sS'High Home'
p3094
I41
sS'Christmas Miracle'
p3095
I3
sS'Big Beer'
p3096
I4
sS'Big Miss'
p3097
I4
sS'Gary Cohn'
p3098
I1
sS'May End'
p3099
I3
sS'Whisenhunt Takes'
p3100
I18
sS'New Jersey'
p3101
I107
sS'Hire Broadway'
p3102
I5
sS'App Gains'
p3103
I2
sS'Stock Price'
p3104
I2
sS'Tempe Town'
p3105
I1
sS'Real Lou'
p3106
I4
sS'Frank Kearse'
p3107
I1
sS'Record High'
p3108
I1
sS'Sees Flurry'
p3109
I13
sS'Michael Brown'
p3110
I1
sS'Steven Hill'
p3111
I20
sS'Fallon Her'
p3112
I1
sS'Effie Brown'
p3113
I1
sS'Back New'
p3114
I5
sS'Part Well'
p3115
I5
sS'Simon Winchester'
p3116
I29
sS'Jefferson Jackson'
p3117
I10
sS'Black Bears'
p3118
I4
sS'Delta Force'
p3119
I2
sS'Columbus Day'
p3120
I6
sS'Prince Charles'
p3121
I10
sS'Alec Cooke'
p3122
I1
sS'Round Syria'
p3123
I5
sS'Kelly Groh'
p3124
I1
sS'Went Too'
p3125
I2
sS'Charleston Church'
p3126
I19
sS'David Blatt'
p3127
I1
sS'Mark Bittman'
p3128
I2
sS'Harlem River'
p3129
I22
sS'Surprise Victory'
p3130
I1
sS'Dennis Pitta'
p3131
I3
sS'Yum Brands'
p3132
I2
sS'Haslam Buys'
p3133
I12
sS'Miss Coach'
p3134
I2
sS'Los Angeles'
p3135
I232
sS'Amy Schumer'
p3136
I214
sS'All Sides'
p3137
I18
sS'Mark Thompson'
p3138
I3
sS'Ashton Carter'
p3139
I2
sS'Michael Bennett'
p3140
I8
sS'Mosely Win'
p3141
I1
sS'Show Horse'
p3142
I6
sS'Israel Top'
p3143
I6
sS'Michael Traynor'
p3144
I4
sS'Cam Heyward'
p3145
I4
sS'Fear Loss'
p3146
I4
sS'Donte Whitner'
p3147
I1
sS'Christmas Season'
p3148
I1
sS'Lakin Dies'
p3149
I1
sS'Life First'
p3150
I19
sS'Case Ask'
p3151
I2
sS'Mark Zuckerberg'
p3152
I75
sS'Matt Ryan'
p3153
I1
sS'Black Dress'
p3154
I1
sS'Jeff Probst'
p3155
I1
sS'Palm Beach'
p3156
I2
sS'Paul Rhoads'
p3157
I1
sS'Sam Mendes'
p3158
I1
sS'Beer Ice'
p3159
I1
sS'Blue Hair'
p3160
I16
sS'Fargo Rides'
p3161
I3
sS'Mayor Boris'
p3162
I1
sS'Eli Lilly'
p3163
I1
sS'Sees Signs'
p3164
I25
sS'Police Fire'
p3165
I4
sS'Warren Buffett'
p3166
I62
sS'Santa Clara'
p3167
I4
sS'Mail App'
p3168
I3
sS'Barrett Back'
p3169
I3
sS'Show Runner'
p3170
I11
sS'Erika Karen'
p3171
I1
sS'Old Mill'
p3172
I2
sS'Lemon Face'
p3173
I8
sS'East Harlem'
p3174
I110
sS'Philip Moeller'
p3175
I3
sS'War Crimes'
p3176
I1
sS'Tiger Woods'
p3177
I17
sS'Kayla Mueller'
p3178
I3
sS'Bill Morneau'
p3179
I1
sS'Wilson Europe'
p3180
I9
sS'Slain Officer'
p3181
I13
sS'Matt Ridley'
p3182
I61
sS'Magic Star'
p3183
I2
sS'Baltimore Police'
p3184
I10
sS'Square Files'
p3185
I4
sS'Will End'
p3186
I3
sS'Lamar Alexander'
p3187
I67
sS'Border States'
p3188
I1
sS'Brett Stegmaier'
p3189
I4
sS'Bear Hunt'
p3190
I3
sS'North Jersey'
p3191
I2
sS'Right Job'
p3192
I1
sS'Seller Dials'
p3193
I6
sS'Abby Wambach'
p3194
I21
sS'Ask Congress'
p3195
I1
sS'Trump Tower'
p3196
I3
sS'Kick Off'
p3197
I67
sS'Clinton Server'
p3198
I3
sS'Ryan Will'
p3199
I13
sS'Jared Goff'
p3200
I7
sS'New Brunswick'
p3201
I3
sS'Kelly Oubre'
p3202
I17
sS'Near Syria'
p3203
I8
sS'Pierre Trudeau'
p3204
I1
sS'First President'
p3205
I2
sS'Has Been'
p3206
I22
sS'Paula Deen'
p3207
I5
sS'Hank Henshaw'
p3208
I3
sS'Rick Perry'
p3209
I17
sS'Will Linger'
p3210
I3
sS'Talent Judge'
p3211
I2
sS'Clay Helton'
p3212
I3
sS'Race Shows'
p3213
I1
sS'Train Hero'
p3214
I4
sS'Guitar Hero'
p3215
I2
sS'Coach Bill'
p3216
I1
sS'State Hires'
p3217
I5
sS'Will Pick'
p3218
I1
sS'Angeles Schools'
p3219
I8
sS'Senate Race'
p3220
I22
sS'Christie Win'
p3221
I9
sS'Fake Cover'
p3222
I5
sS'Media Rides'
p3223
I18
sS'Trudeau Heir'
p3224
I1
sS'Sally Field'
p3225
I5
sS'Steven Spielberg'
p3226
I65
sS'Fuel Deal'
p3227
I4
sS'Nice Life'
p3228
I28
sS'Judge Warns'
p3229
I3
sS'Schools Do'
p3230
I5
sS'Major League'
p3231
I13
sS'York Red'
p3232
I1
sS'Police Begin'
p3233
I11
sS'Waggoner Ranch'
p3234
I21
sS'Cancer Risk'
p3235
I4
sS'Clinton Lawyer'
p3236
I8
sS'York Sue'
p3237
I5
sS'Del Monte'
p3238
I1
sS'No Punches'
p3239
I1
sS'Miley Cyrus'
p3240
I5
sS'Takes Fresh'
p3241
I5
sS'House Hunting'
p3242
I125
sS'Richer Deal'
p3243
I11
sS'Germaine Greer'
p3244
I37
sS'Belinda Luscombe'
p3245
I175
sS'Chi Chin'
p3246
I9
sS'Munoz Takes'
p3247
I1
sS'Fred Dalton'
p3248
I1
sS'Ivy League'
p3249
I226
sS'Brad Stevens'
p3250
I1
sS'Sean Payton'
p3251
I2
sS'Williams Stops'
p3252
I1
sS'Lower Home'
p3253
I23
sS'Mayor Rahm'
p3254
I7
sS'Shake Shack'
p3255
I77
sS'New Car'
p3256
I3
sS'Navy Yard'
p3257
I116
sS'Cash Part'
p3258
I1
sS'Halt Fleet'
p3259
I22
sS'Philip Morris'
p3260
I5
sS'Lois Lerner'
p3261
I35
sS'Sea Storms'
p3262
I1
sS'Dell Deal'
p3263
I59
sS'Prince Harry'
p3264
I9
sS'Max Greenfield'
p3265
I5
sS'Russell Westbrook'
p3266
I4
sS'Muslim State'
p3267
I19
sS'Black Bear'
p3268
I1
sS'Down Drone'
p3269
I12
sS'Philip Chism'
p3270
I1
sS'Dickstein Shapiro'
p3271
I1
sS'Worst Kind'
p3272
I1
sS'Roger Goodell'
p3273
I2
sS'Woodson High'
p3274
I14
sS'Wally Weitz'
p3275
I10
sS'John Stamos'
p3276
I4
sS'Abbott Labs'
p3277
I2
sS'Cameron Diaz'
p3278
I20
sS'Fix Puerto'
p3279
I19
sS'Columbia Coast'
p3280
I1
sS'Long Wait'
p3281
I2
sS'Them Simple'
p3282
I3
sS'Will Alert'
p3283
I2
sS'Mike Huckabee'
p3284
I2
sS'Syria Gamble'
p3285
I3
sS'Seda Valley'
p3286
I2
sS'London Art'
p3287
I3
sS'Than Good'
p3288
I5
sS'Michael Scherer'
p3289
I77
sS'Favorite Stump'
p3290
I1
sS'Steven Brill'
p3291
I6
sS'College Board'
p3292
I5
sS'Joe Torre'
p3293
I1
sS'Turks Point'
p3294
I1
sS'New Public'
p3295
I4
sS'Chase Pay'
p3296
I2
sS'Yuan Down'
p3297
I2
sS'Alfred Morris'
p3298
I4
sS'Justin Williams'
p3299
I1
sS'Panda Cam'
p3300
I118
sS'Carrie Fisher'
p3301
I30
sS'Edith Has'
p3302
I2
sS'Amari Cooper'
p3303
I1
sS'Call Off'
p3304
I3
sS'Must Pay'
p3305
I34
sS'Hyun Soon'
p3306
I36
sS'Slain Police'
p3307
I2
sS'Black Leader'
p3308
I5
sS'Cover Bad'
p3309
I3
sS'Brooklyn Band'
p3310
I12
sS'Truly Takes'
p3311
I1
sS'Chris Young'
p3312
I3
sS'Revis Island'
p3313
I1
sS'Party Credit'
p3314
I6
sS'Kevin Costner'
p3315
I24
sS'Elizabeth Warren'
p3316
I19
sS'Number Shows'
p3317
I3
sS'Van Hollen'
p3318
I70
sS'West Bank'
p3319
I107
sS'New Race'
p3320
I1
sS'Alber Elbaz'
p3321
I61
sS'Oregon Police'
p3322
I1
sS'Than Life'
p3323
I4
sS'Cory Jones'
p3324
I2
sS'Union Reach'
p3325
I5
sS'Jennifer Lawrence'
p3326
I107
sS'Darrell Hazell'
p3327
I1
sS'Miles College'
p3328
I1
sS'Bode Well'
p3329
I1
sS'China Warns'
p3330
I3
sS'Jones Hacking'
p3331
I7
sS'China Signs'
p3332
I2
sS'Klay Thompson'
p3333
I1
sS'Killer Be'
p3334
I6
sS'Town Hall'
p3335
I6
sS'Shows China'
p3336
I1
sS'Win Canada'
p3337
I1
sS'New Free'
p3338
I2
sS'Born Weeks'
p3339
I3
sS'Market Chill'
p3340
I8
sS'Andre Ethier'
p3341
I1
sS'Che Guevara'
p3342
I1
sS'Ryan White'
p3343
I23
sS'Honey Study'
p3344
I14
sS'Weather Service'
p3345
I1
sS'Stops Uber'
p3346
I72
sS'Buck Market'
p3347
I7
sS'Ends Search'
p3348
I1
sS'First Test'
p3349
I1
sS'Fox Lake'
p3350
I16
sS'Pay Back'
p3351
I2
sS'Never Worn'
p3352
I8
sS'College Degree'
p3353
I1
sS'Kurt Busch'
p3354
I4
sS'Mack Brown'
p3355
I2
sS'Alanis Morissette'
p3356
I4
sS'All Smiles'
p3357
I7
sS'Toll Mounts'
p3358
I11
sS'Sparks Fly'
p3359
I30
sS'Long Day'
p3360
I2
sS'Arrow Season'
p3361
I3
sS'Francisco May'
p3362
I5
sS'Fort Collins'
p3363
I1
sS'Schumer Push'
p3364
I2
sS'Harden Never'
p3365
I2
sS'Sheryl Sandberg'
p3366
I27
sS'Chuck Schumer'
p3367
I13
sS'Worst Blind'
p3368
I2
sS'Wild Pitch'
p3369
I9
sS'Ship Found'
p3370
I43
sS'Powers Save'
p3371
I1
sS'May Come'
p3372
I1
sS'Darrel Young'
p3373
I2
sS'Gabrielle Union'
p3374
I22
sS'Northern Tier'
p3375
I1
sS'Bill Cowher'
p3376
I1
sS'Hidden College'
p3377
I1
sS'Philips China'
p3378
I13
sS'Andre Ellington'
p3379
I1
sS'Bath Iron'
p3380
I2
sS'Speaker Ryan'
p3381
I23
sS'Geoffrey Marcy'
p3382
I75
sS'Princess Leia'
p3383
I1
sS'Bank Lowers'
p3384
I2
sS'May Soon'
p3385
I6
sS'Otto Porter'
p3386
I1
sS'Both May'
p3387
I1
sS'York Apple'
p3388
I1
sS'Seal Beach'
p3389
I1
sS'Off Coast'
p3390
I1
sS'John Luther'
p3391
I10
sS'George Washington'
p3392
I109
sS'Million Home'
p3393
I1
sS'Kyle Allen'
p3394
I1
sS'Carey Price'
p3395
I1
sS'Lucas Duda'
p3396
I11
sS'Angeles Police'
p3397
I1
sS'Kyle Hendricks'
p3398
I1
sS'Warm Winter'
p3399
I1
sS'Sandy Beach'
p3400
I24
sS'Gun Storage'
p3401
I4
sS'Lake Worth'
p3402
I2
sS'Wider Loss'
p3403
I1
sS'Cool Seat'
p3404
I3
sS'Hague Court'
p3405
I4
sS'Montana High'
p3406
I46
sS'Sarah Silverman'
p3407
I43
sS'Westfield Mall'
p3408
I5
sS'Speaker Race'
p3409
I1
sS'Minister Pierre'
p3410
I1
sS'Maryland Bride'
p3411
I3
sS'Corey Coleman'
p3412
I1
sS'Center Chamber'
p3413
I21
sS'Ivy Taylor'
p3414
I2
sS'Too Rich'
p3415
I5
sS'Adam Sandler'
p3416
I3
sS'Back Work'
p3417
I3
sS'Fine Takata'
p3418
I9
sS'High Pitch'
p3419
I4
sS'Elizabeth Nunez'
p3420
I13
sS'Jon Hamm'
p3421
I52
sS'Serena Williams'
p3422
I29
sS'Bass Tones'
p3423
I29
sS'Silver Trial'
p3424
I29
sS'Record Profit'
p3425
I6
sS'Bridge List'
p3426
I39
sS'Andy Dalton'
p3427
I1
sS'Woodrow Wilson'
p3428
I2
sS'Johns Hopkins'
p3429
I36
sS'Bears Circle'
p3430
I1
sS'Cargo Ship'
p3431
I48
sS'Carlos Hyde'
p3432
I1
sS'Merck Profit'
p3433
I3
sS'James Sing'
p3434
I68
sS'Long Shadow'
p3435
I24
sS'Boise State'
p3436
I3
sS'Grief Has'
p3437
I8
sS'Army Base'
p3438
I9
sS'Shows Promise'
p3439
I41
sS'Woo Max'
p3440
I5
sS'Mary Jo'
p3441
I3
sS'Murphy Anderson'
p3442
I34
sS'Corn Tweet'
p3443
I1
sS'See Pope'
p3444
I1
sS'Copper Falls'
p3445
I3
sS'Wind Farm'
p3446
I3
sS'Will Star'
p3447
I4
sS'Officer Ben'
p3448
I4
sS'Soon End'
p3449
I4
sS'Hampshire Poll'
p3450
I3
sS'Ronald Reagan'
p3451
I128
sS'Monday Night'
p3452
I4
sS'Sharp Rise'
p3453
I10
sS'Vaughn Jones'
p3454
I2
sS'Martin Luther'
p3455
I3
sS'Carson Inches'
p3456
I2
sS'Andrew Friedman'
p3457
I5
sS'Small Cos'
p3458
I9
sS'Steven Cohen'
p3459
I2
sS'Will Pare'
p3460
I16
sS'Noelle Stevenson'
p3461
I51
sS'New Files'
p3462
I3
sS'Host Sudan'
p3463
I3
sS'Stake Purchase'
p3464
I22
sS'Dupont Circle'
p3465
I1
sS'City Star'
p3466
I1
sS'Water Levels'
p3467
I2
sS'Europe Face'
p3468
I1
sS'City Kitchen'
p3469
I152
sS'Diamond Stone'
p3470
I1
sS'Smart Ways'
p3471
I2
sS'Pat Fitzgerald'
p3472
I1
sS'Brooklyn Navy'
p3473
I104
sS'Files Reveal'
p3474
I3
sS'Paxton Lynch'
p3475
I1
sS'Susanna Quinn'
p3476
I77
sS'Bud Light'
p3477
I3
sS'Diesel Read'
p3478
I94
sS'Hacker Threats'
p3479
I3
sS'Nathan Lane'
p3480
I5
sS'Miles Brock'
p3481
I2
sS'South Sudan'
p3482
I69
sS'Island Dies'
p3483
I8
sS'First Single'
p3484
I4
sS'Fire Danger'
p3485
I1
sS'Francisco Victory'
p3486
I16
sS'Sea Power'
p3487
I2
sS'Venus Williams'
p3488
I1
sS'Noelle Frost'
p3489
I3
sS'Profit Drop'
p3490
I9
sS'Speaker Job'
p3491
I5
sS'Aid Orban'
p3492
I1
sS'Peter Dougherty'
p3493
I39
sS'Bonds Rise'
p3494
I7
sS'Will Gay'
p3495
I1
sS'Stock Market'
p3496
I56
sS'Harry Hamlin'
p3497
I1
stp3498
Rp3499
.